

Microchip MPLAB XC8 Assembler V3.00 build 20241204225717 
                                                                                               Thu Nov 27 03:44:20 2025

Microchip MPLAB XC8 C Compiler v3.00 (Free license) build 20241204225717 Og1 
     1                           	processor	18F4520
     2                           	fnconf	rparam,??,?,0
     3                           	pagewidth 120
     4                           	opt	flic
     5                           	psect	smallconst,global,reloc=2,class=SMALLCONST,space=0,delta=1,noexec
     6                           	psect	cinit,global,reloc=2,class=CODE,space=0,delta=1
     7                           	psect	bssCOMRAM,global,class=COMRAM,space=1,delta=1,lowdata,noexec
     8                           	psect	bssBANK0,global,class=BANK0,space=1,delta=1,lowdata,noexec
     9                           	psect	cstackBANK0,global,class=BANK0,space=1,delta=1,lowdata,noexec
    10                           	psect	cstackCOMRAM,global,class=COMRAM,space=1,delta=1,lowdata,noexec
    11                           	psect	text0,global,reloc=2,class=CODE,space=0,delta=1
    12                           	psect	text1,global,reloc=2,class=CODE,space=0,delta=1
    13                           	psect	text2,global,reloc=2,class=CODE,space=0,delta=1
    14                           	psect	text3,global,reloc=2,class=CODE,space=0,delta=1
    15                           	psect	text4,global,reloc=2,class=CODE,space=0,delta=1
    16                           	psect	text5,global,reloc=2,class=CODE,space=0,delta=1
    17                           	psect	text6,global,reloc=2,class=CODE,space=0,delta=1
    18                           	psect	text7,global,reloc=2,class=CODE,space=0,delta=1
    19                           	psect	text8,global,reloc=2,class=CODE,space=0,delta=1
    20                           	psect	intcodelo,global,reloc=2,class=CODE,space=0,delta=1
    21                           	psect	text10,global,reloc=2,class=CODE,space=0,delta=1
    22                           	psect	text11,global,reloc=2,class=CODE,space=0,delta=1
    23                           	psect	intcode,global,reloc=2,class=CODE,space=0,delta=1
    24                           	psect	intcode_body,global,reloc=2,class=CODE,space=0,delta=1
    25                           	psect	text13,global,reloc=2,class=CODE,space=0,delta=1
    26                           	psect	text14,global,reloc=2,class=CODE,space=0,delta=1
    27                           	psect	text15,global,reloc=2,class=CODE,space=0,delta=1,group=3
    28                           	psect	text16,global,reloc=2,class=CODE,space=0,delta=1,group=1
    29                           	psect	text17,global,reloc=2,class=CODE,space=0,delta=1,group=1
    30                           	psect	text18,global,reloc=2,class=CODE,space=0,delta=1,group=3
    31                           	psect	text19,global,reloc=2,class=CODE,space=0,delta=1,group=3
    32                           	psect	text20,global,reloc=2,class=CODE,space=0,delta=1,group=3
    33                           	psect	text21,global,reloc=2,class=CODE,space=0,delta=1,group=2
    34                           	psect	text22,global,reloc=2,class=CODE,space=0,delta=1,group=2
    35                           	psect	intsave_regs,global,class=BIGRAM,space=1,delta=1,noexec
    36                           	psect	rparam,global,class=COMRAM,space=1,delta=1,noexec
    37                           	psect	temp,global,ovrld,common,class=COMRAM,space=1,delta=1,lowdata
    38                           	psect	idloc,global,abs,ovrld,class=IDLOC,space=5,delta=1,noexec
    39                           	psect	config,global,abs,ovrld,class=CONFIG,space=4,delta=1,noexec
    40   000000                     
    41                           ; Generated 05/12/2024 GMT
    42                           ; 
    43                           ; Copyright © 2024, Microchip Technology Inc. and its subsidiaries ("Microchip")
    44                           ; All rights reserved.
    45                           ; 
    46                           ; This software is developed by Microchip Technology Inc. and its subsidiaries ("Microch
      +                          ip").
    47                           ; 
    48                           ; Redistribution and use in source and binary forms, with or without modification, are
    49                           ; permitted provided that the following conditions are met:
    50                           ; 
    51                           ;     1. Redistributions of source code must retain the above copyright notice, this lis
      +                          t of
    52                           ;        conditions and the following disclaimer.
    53                           ; 
    54                           ;     2. Redistributions in binary form must reproduce the above copyright notice, this 
      +                          list
    55                           ;        of conditions and the following disclaimer in the documentation and/or other
    56                           ;        materials provided with the distribution. Publication is not required when
    57                           ;        this file is used in an embedded application.
    58                           ; 
    59                           ;     3. Microchip's name may not be used to endorse or promote products derived from th
      +                          is
    60                           ;        software without specific prior written permission.
    61                           ; 
    62                           ; THIS SOFTWARE IS PROVIDED BY MICROCHIP "AS IS" AND ANY EXPRESS OR IMPLIED WARRANTIES,
    63                           ; INCLUDING, BUT NOT LIMITED TO, THE IMPLIED WARRANTIES OF MERCHANTABILITY AND FITNESS F
      +                          OR
    64                           ; PURPOSE ARE DISCLAIMED.  IN NO EVENT SHALL MICROCHIP BE LIABLE FOR ANY DIRECT, INDIREC
      +                          T,
    65                           ; INCIDENTAL, SPECIAL, EXEMPLARY, OR CONSEQUENTIAL DAMAGES (INCLUDING BUT NOT LIMITED TO
    66                           ; PROCUREMENT OF SUBSTITUTE GOODS OR SERVICES; LOSS OF USE, DATA OR PROFITS; OR BUSINESS
    67                           ; INTERRUPTION) HOWSOEVER CAUSED AND ON ANY THEORY OF LIABILITY, WHETHER IN CONTRACT, ST
      +                          RICT
    68                           ; LIABILITY, OR TORT (INCLUDING NEGLIGENCE OR OTHERWISE) ARISING IN ANY WAY OUT OF THE U
      +                          SE OF
    69                           ; THIS SOFTWARE, EVEN IF ADVISED OF THE POSSIBILITY OF SUCH DAMAGE.
    70                           ; 
    71                           ; 
    72                           ; Code-generator required, PIC18F4520 Definitions
    73                           ; 
    74                           ; SFR Addresses
    75   000FE0                     bsr             equ	4064
    76   000FE9                     fsr0            equ	4073
    77   000FEA                     fsr0h           equ	4074
    78   000FE9                     fsr0l           equ	4073
    79   000FE1                     fsr1            equ	4065
    80   000FE2                     fsr1h           equ	4066
    81   000FE1                     fsr1l           equ	4065
    82   000FD9                     fsr2            equ	4057
    83   000FDA                     fsr2h           equ	4058
    84   000FD9                     fsr2l           equ	4057
    85   000FEF                     indf0           equ	4079
    86   000FE7                     indf1           equ	4071
    87   000FDF                     indf2           equ	4063
    88   000FF2                     intcon          equ	4082
    89   000000                     nvmcon          equ	0
    90   000FF9                     pcl             equ	4089
    91   000FFA                     pclath          equ	4090
    92   000FFB                     pclatu          equ	4091
    93   000FEB                     plusw0          equ	4075
    94   000FE3                     plusw1          equ	4067
    95   000FDB                     plusw2          equ	4059
    96   000FED                     postdec0        equ	4077
    97   000FE5                     postdec1        equ	4069
    98   000FDD                     postdec2        equ	4061
    99   000FEE                     postinc0        equ	4078
   100   000FE6                     postinc1        equ	4070
   101   000FDE                     postinc2        equ	4062
   102   000FEC                     preinc0         equ	4076
   103   000FE4                     preinc1         equ	4068
   104   000FDC                     preinc2         equ	4060
   105   000FF3                     prod            equ	4083
   106   000FF4                     prodh           equ	4084
   107   000FF3                     prodl           equ	4083
   108   000FD8                     status          equ	4056
   109   000FF5                     tablat          equ	4085
   110   000FF6                     tblptr          equ	4086
   111   000FF7                     tblptrh         equ	4087
   112   000FF6                     tblptrl         equ	4086
   113   000FF8                     tblptru         equ	4088
   114   000FFD                     tosl            equ	4093
   115   000FE8                     wreg            equ	4072
   116   000F80                     PORTA           equ	3968	;# 
   117   000F81                     PORTB           equ	3969	;# 
   118   000F82                     PORTC           equ	3970	;# 
   119   000F83                     PORTD           equ	3971	;# 
   120   000F84                     PORTE           equ	3972	;# 
   121   000F89                     LATA            equ	3977	;# 
   122   000F8A                     LATB            equ	3978	;# 
   123   000F8B                     LATC            equ	3979	;# 
   124   000F8C                     LATD            equ	3980	;# 
   125   000F8D                     LATE            equ	3981	;# 
   126   000F92                     TRISA           equ	3986	;# 
   127   000F92                     DDRA            equ	3986	;# 
   128   000F93                     TRISB           equ	3987	;# 
   129   000F93                     DDRB            equ	3987	;# 
   130   000F94                     TRISC           equ	3988	;# 
   131   000F94                     DDRC            equ	3988	;# 
   132   000F95                     TRISD           equ	3989	;# 
   133   000F95                     DDRD            equ	3989	;# 
   134   000F96                     TRISE           equ	3990	;# 
   135   000F96                     DDRE            equ	3990	;# 
   136   000F9B                     OSCTUNE         equ	3995	;# 
   137   000F9D                     PIE1            equ	3997	;# 
   138   000F9E                     PIR1            equ	3998	;# 
   139   000F9F                     IPR1            equ	3999	;# 
   140   000FA0                     PIE2            equ	4000	;# 
   141   000FA1                     PIR2            equ	4001	;# 
   142   000FA2                     IPR2            equ	4002	;# 
   143   000FA6                     EECON1          equ	4006	;# 
   144   000FA7                     EECON2          equ	4007	;# 
   145   000FA8                     EEDATA          equ	4008	;# 
   146   000FA9                     EEADR           equ	4009	;# 
   147   000FAB                     RCSTA           equ	4011	;# 
   148   000FAB                     RCSTA1          equ	4011	;# 
   149   000FAC                     TXSTA           equ	4012	;# 
   150   000FAC                     TXSTA1          equ	4012	;# 
   151   000FAD                     TXREG           equ	4013	;# 
   152   000FAD                     TXREG1          equ	4013	;# 
   153   000FAE                     RCREG           equ	4014	;# 
   154   000FAE                     RCREG1          equ	4014	;# 
   155   000FAF                     SPBRG           equ	4015	;# 
   156   000FAF                     SPBRG1          equ	4015	;# 
   157   000FB0                     SPBRGH          equ	4016	;# 
   158   000FB1                     T3CON           equ	4017	;# 
   159   000FB2                     TMR3            equ	4018	;# 
   160   000FB2                     TMR3L           equ	4018	;# 
   161   000FB3                     TMR3H           equ	4019	;# 
   162   000FB4                     CMCON           equ	4020	;# 
   163   000FB5                     CVRCON          equ	4021	;# 
   164   000FB6                     ECCP1AS         equ	4022	;# 
   165   000FB6                     ECCPAS          equ	4022	;# 
   166   000FB7                     PWM1CON         equ	4023	;# 
   167   000FB7                     ECCP1DEL        equ	4023	;# 
   168   000FB8                     BAUDCON         equ	4024	;# 
   169   000FB8                     BAUDCTL         equ	4024	;# 
   170   000FBA                     CCP2CON         equ	4026	;# 
   171   000FBB                     CCPR2           equ	4027	;# 
   172   000FBB                     CCPR2L          equ	4027	;# 
   173   000FBC                     CCPR2H          equ	4028	;# 
   174   000FBD                     CCP1CON         equ	4029	;# 
   175   000FBE                     CCPR1           equ	4030	;# 
   176   000FBE                     CCPR1L          equ	4030	;# 
   177   000FBF                     CCPR1H          equ	4031	;# 
   178   000FC0                     ADCON2          equ	4032	;# 
   179   000FC1                     ADCON1          equ	4033	;# 
   180   000FC2                     ADCON0          equ	4034	;# 
   181   000FC3                     ADRES           equ	4035	;# 
   182   000FC3                     ADRESL          equ	4035	;# 
   183   000FC4                     ADRESH          equ	4036	;# 
   184   000FC5                     SSPCON2         equ	4037	;# 
   185   000FC6                     SSPCON1         equ	4038	;# 
   186   000FC7                     SSPSTAT         equ	4039	;# 
   187   000FC8                     SSPADD          equ	4040	;# 
   188   000FC9                     SSPBUF          equ	4041	;# 
   189   000FCA                     T2CON           equ	4042	;# 
   190   000FCB                     PR2             equ	4043	;# 
   191   000FCB                     MEMCON          equ	4043	;# 
   192   000FCC                     TMR2            equ	4044	;# 
   193   000FCD                     T1CON           equ	4045	;# 
   194   000FCE                     TMR1            equ	4046	;# 
   195   000FCE                     TMR1L           equ	4046	;# 
   196   000FCF                     TMR1H           equ	4047	;# 
   197   000FD0                     RCON            equ	4048	;# 
   198   000FD1                     WDTCON          equ	4049	;# 
   199   000FD2                     HLVDCON         equ	4050	;# 
   200   000FD2                     LVDCON          equ	4050	;# 
   201   000FD3                     OSCCON          equ	4051	;# 
   202   000FD5                     T0CON           equ	4053	;# 
   203   000FD6                     TMR0            equ	4054	;# 
   204   000FD6                     TMR0L           equ	4054	;# 
   205   000FD7                     TMR0H           equ	4055	;# 
   206   000FD8                     STATUS          equ	4056	;# 
   207   000FD9                     FSR2            equ	4057	;# 
   208   000FD9                     FSR2L           equ	4057	;# 
   209   000FDA                     FSR2H           equ	4058	;# 
   210   000FDB                     PLUSW2          equ	4059	;# 
   211   000FDC                     PREINC2         equ	4060	;# 
   212   000FDD                     POSTDEC2        equ	4061	;# 
   213   000FDE                     POSTINC2        equ	4062	;# 
   214   000FDF                     INDF2           equ	4063	;# 
   215   000FE0                     BSR             equ	4064	;# 
   216   000FE1                     FSR1            equ	4065	;# 
   217   000FE1                     FSR1L           equ	4065	;# 
   218   000FE2                     FSR1H           equ	4066	;# 
   219   000FE3                     PLUSW1          equ	4067	;# 
   220   000FE4                     PREINC1         equ	4068	;# 
   221   000FE5                     POSTDEC1        equ	4069	;# 
   222   000FE6                     POSTINC1        equ	4070	;# 
   223   000FE7                     INDF1           equ	4071	;# 
   224   000FE8                     WREG            equ	4072	;# 
   225   000FE9                     FSR0            equ	4073	;# 
   226   000FE9                     FSR0L           equ	4073	;# 
   227   000FEA                     FSR0H           equ	4074	;# 
   228   000FEB                     PLUSW0          equ	4075	;# 
   229   000FEC                     PREINC0         equ	4076	;# 
   230   000FED                     POSTDEC0        equ	4077	;# 
   231   000FEE                     POSTINC0        equ	4078	;# 
   232   000FEF                     INDF0           equ	4079	;# 
   233   000FF0                     INTCON3         equ	4080	;# 
   234   000FF1                     INTCON2         equ	4081	;# 
   235   000FF2                     INTCON          equ	4082	;# 
   236   000FF3                     PROD            equ	4083	;# 
   237   000FF3                     PRODL           equ	4083	;# 
   238   000FF4                     PRODH           equ	4084	;# 
   239   000FF5                     TABLAT          equ	4085	;# 
   240   000FF6                     TBLPTR          equ	4086	;# 
   241   000FF6                     TBLPTRL         equ	4086	;# 
   242   000FF7                     TBLPTRH         equ	4087	;# 
   243   000FF8                     TBLPTRU         equ	4088	;# 
   244   000FF9                     PCLAT           equ	4089	;# 
   245   000FF9                     PC              equ	4089	;# 
   246   000FF9                     PCL             equ	4089	;# 
   247   000FFA                     PCLATH          equ	4090	;# 
   248   000FFB                     PCLATU          equ	4091	;# 
   249   000FFC                     STKPTR          equ	4092	;# 
   250   000FFD                     TOS             equ	4093	;# 
   251   000FFD                     TOSL            equ	4093	;# 
   252   000FFE                     TOSH            equ	4094	;# 
   253   000FFF                     TOSU            equ	4095	;# 
   254   000F80                     PORTA           equ	3968	;# 
   255   000F81                     PORTB           equ	3969	;# 
   256   000F82                     PORTC           equ	3970	;# 
   257   000F83                     PORTD           equ	3971	;# 
   258   000F84                     PORTE           equ	3972	;# 
   259   000F89                     LATA            equ	3977	;# 
   260   000F8A                     LATB            equ	3978	;# 
   261   000F8B                     LATC            equ	3979	;# 
   262   000F8C                     LATD            equ	3980	;# 
   263   000F8D                     LATE            equ	3981	;# 
   264   000F92                     TRISA           equ	3986	;# 
   265   000F92                     DDRA            equ	3986	;# 
   266   000F93                     TRISB           equ	3987	;# 
   267   000F93                     DDRB            equ	3987	;# 
   268   000F94                     TRISC           equ	3988	;# 
   269   000F94                     DDRC            equ	3988	;# 
   270   000F95                     TRISD           equ	3989	;# 
   271   000F95                     DDRD            equ	3989	;# 
   272   000F96                     TRISE           equ	3990	;# 
   273   000F96                     DDRE            equ	3990	;# 
   274   000F9B                     OSCTUNE         equ	3995	;# 
   275   000F9D                     PIE1            equ	3997	;# 
   276   000F9E                     PIR1            equ	3998	;# 
   277   000F9F                     IPR1            equ	3999	;# 
   278   000FA0                     PIE2            equ	4000	;# 
   279   000FA1                     PIR2            equ	4001	;# 
   280   000FA2                     IPR2            equ	4002	;# 
   281   000FA6                     EECON1          equ	4006	;# 
   282   000FA7                     EECON2          equ	4007	;# 
   283   000FA8                     EEDATA          equ	4008	;# 
   284   000FA9                     EEADR           equ	4009	;# 
   285   000FAB                     RCSTA           equ	4011	;# 
   286   000FAB                     RCSTA1          equ	4011	;# 
   287   000FAC                     TXSTA           equ	4012	;# 
   288   000FAC                     TXSTA1          equ	4012	;# 
   289   000FAD                     TXREG           equ	4013	;# 
   290   000FAD                     TXREG1          equ	4013	;# 
   291   000FAE                     RCREG           equ	4014	;# 
   292   000FAE                     RCREG1          equ	4014	;# 
   293   000FAF                     SPBRG           equ	4015	;# 
   294   000FAF                     SPBRG1          equ	4015	;# 
   295   000FB0                     SPBRGH          equ	4016	;# 
   296   000FB1                     T3CON           equ	4017	;# 
   297   000FB2                     TMR3            equ	4018	;# 
   298   000FB2                     TMR3L           equ	4018	;# 
   299   000FB3                     TMR3H           equ	4019	;# 
   300   000FB4                     CMCON           equ	4020	;# 
   301   000FB5                     CVRCON          equ	4021	;# 
   302   000FB6                     ECCP1AS         equ	4022	;# 
   303   000FB6                     ECCPAS          equ	4022	;# 
   304   000FB7                     PWM1CON         equ	4023	;# 
   305   000FB7                     ECCP1DEL        equ	4023	;# 
   306   000FB8                     BAUDCON         equ	4024	;# 
   307   000FB8                     BAUDCTL         equ	4024	;# 
   308   000FBA                     CCP2CON         equ	4026	;# 
   309   000FBB                     CCPR2           equ	4027	;# 
   310   000FBB                     CCPR2L          equ	4027	;# 
   311   000FBC                     CCPR2H          equ	4028	;# 
   312   000FBD                     CCP1CON         equ	4029	;# 
   313   000FBE                     CCPR1           equ	4030	;# 
   314   000FBE                     CCPR1L          equ	4030	;# 
   315   000FBF                     CCPR1H          equ	4031	;# 
   316   000FC0                     ADCON2          equ	4032	;# 
   317   000FC1                     ADCON1          equ	4033	;# 
   318   000FC2                     ADCON0          equ	4034	;# 
   319   000FC3                     ADRES           equ	4035	;# 
   320   000FC3                     ADRESL          equ	4035	;# 
   321   000FC4                     ADRESH          equ	4036	;# 
   322   000FC5                     SSPCON2         equ	4037	;# 
   323   000FC6                     SSPCON1         equ	4038	;# 
   324   000FC7                     SSPSTAT         equ	4039	;# 
   325   000FC8                     SSPADD          equ	4040	;# 
   326   000FC9                     SSPBUF          equ	4041	;# 
   327   000FCA                     T2CON           equ	4042	;# 
   328   000FCB                     PR2             equ	4043	;# 
   329   000FCB                     MEMCON          equ	4043	;# 
   330   000FCC                     TMR2            equ	4044	;# 
   331   000FCD                     T1CON           equ	4045	;# 
   332   000FCE                     TMR1            equ	4046	;# 
   333   000FCE                     TMR1L           equ	4046	;# 
   334   000FCF                     TMR1H           equ	4047	;# 
   335   000FD0                     RCON            equ	4048	;# 
   336   000FD1                     WDTCON          equ	4049	;# 
   337   000FD2                     HLVDCON         equ	4050	;# 
   338   000FD2                     LVDCON          equ	4050	;# 
   339   000FD3                     OSCCON          equ	4051	;# 
   340   000FD5                     T0CON           equ	4053	;# 
   341   000FD6                     TMR0            equ	4054	;# 
   342   000FD6                     TMR0L           equ	4054	;# 
   343   000FD7                     TMR0H           equ	4055	;# 
   344   000FD8                     STATUS          equ	4056	;# 
   345   000FD9                     FSR2            equ	4057	;# 
   346   000FD9                     FSR2L           equ	4057	;# 
   347   000FDA                     FSR2H           equ	4058	;# 
   348   000FDB                     PLUSW2          equ	4059	;# 
   349   000FDC                     PREINC2         equ	4060	;# 
   350   000FDD                     POSTDEC2        equ	4061	;# 
   351   000FDE                     POSTINC2        equ	4062	;# 
   352   000FDF                     INDF2           equ	4063	;# 
   353   000FE0                     BSR             equ	4064	;# 
   354   000FE1                     FSR1            equ	4065	;# 
   355   000FE1                     FSR1L           equ	4065	;# 
   356   000FE2                     FSR1H           equ	4066	;# 
   357   000FE3                     PLUSW1          equ	4067	;# 
   358   000FE4                     PREINC1         equ	4068	;# 
   359   000FE5                     POSTDEC1        equ	4069	;# 
   360   000FE6                     POSTINC1        equ	4070	;# 
   361   000FE7                     INDF1           equ	4071	;# 
   362   000FE8                     WREG            equ	4072	;# 
   363   000FE9                     FSR0            equ	4073	;# 
   364   000FE9                     FSR0L           equ	4073	;# 
   365   000FEA                     FSR0H           equ	4074	;# 
   366   000FEB                     PLUSW0          equ	4075	;# 
   367   000FEC                     PREINC0         equ	4076	;# 
   368   000FED                     POSTDEC0        equ	4077	;# 
   369   000FEE                     POSTINC0        equ	4078	;# 
   370   000FEF                     INDF0           equ	4079	;# 
   371   000FF0                     INTCON3         equ	4080	;# 
   372   000FF1                     INTCON2         equ	4081	;# 
   373   000FF2                     INTCON          equ	4082	;# 
   374   000FF3                     PROD            equ	4083	;# 
   375   000FF3                     PRODL           equ	4083	;# 
   376   000FF4                     PRODH           equ	4084	;# 
   377   000FF5                     TABLAT          equ	4085	;# 
   378   000FF6                     TBLPTR          equ	4086	;# 
   379   000FF6                     TBLPTRL         equ	4086	;# 
   380   000FF7                     TBLPTRH         equ	4087	;# 
   381   000FF8                     TBLPTRU         equ	4088	;# 
   382   000FF9                     PCLAT           equ	4089	;# 
   383   000FF9                     PC              equ	4089	;# 
   384   000FF9                     PCL             equ	4089	;# 
   385   000FFA                     PCLATH          equ	4090	;# 
   386   000FFB                     PCLATU          equ	4091	;# 
   387   000FFC                     STKPTR          equ	4092	;# 
   388   000FFD                     TOS             equ	4093	;# 
   389   000FFD                     TOSL            equ	4093	;# 
   390   000FFE                     TOSH            equ	4094	;# 
   391   000FFF                     TOSU            equ	4095	;# 
   392   000F80                     PORTA           equ	3968	;# 
   393   000F81                     PORTB           equ	3969	;# 
   394   000F82                     PORTC           equ	3970	;# 
   395   000F83                     PORTD           equ	3971	;# 
   396   000F84                     PORTE           equ	3972	;# 
   397   000F89                     LATA            equ	3977	;# 
   398   000F8A                     LATB            equ	3978	;# 
   399   000F8B                     LATC            equ	3979	;# 
   400   000F8C                     LATD            equ	3980	;# 
   401   000F8D                     LATE            equ	3981	;# 
   402   000F92                     TRISA           equ	3986	;# 
   403   000F92                     DDRA            equ	3986	;# 
   404   000F93                     TRISB           equ	3987	;# 
   405   000F93                     DDRB            equ	3987	;# 
   406   000F94                     TRISC           equ	3988	;# 
   407   000F94                     DDRC            equ	3988	;# 
   408   000F95                     TRISD           equ	3989	;# 
   409   000F95                     DDRD            equ	3989	;# 
   410   000F96                     TRISE           equ	3990	;# 
   411   000F96                     DDRE            equ	3990	;# 
   412   000F9B                     OSCTUNE         equ	3995	;# 
   413   000F9D                     PIE1            equ	3997	;# 
   414   000F9E                     PIR1            equ	3998	;# 
   415   000F9F                     IPR1            equ	3999	;# 
   416   000FA0                     PIE2            equ	4000	;# 
   417   000FA1                     PIR2            equ	4001	;# 
   418   000FA2                     IPR2            equ	4002	;# 
   419   000FA6                     EECON1          equ	4006	;# 
   420   000FA7                     EECON2          equ	4007	;# 
   421   000FA8                     EEDATA          equ	4008	;# 
   422   000FA9                     EEADR           equ	4009	;# 
   423   000FAB                     RCSTA           equ	4011	;# 
   424   000FAB                     RCSTA1          equ	4011	;# 
   425   000FAC                     TXSTA           equ	4012	;# 
   426   000FAC                     TXSTA1          equ	4012	;# 
   427   000FAD                     TXREG           equ	4013	;# 
   428   000FAD                     TXREG1          equ	4013	;# 
   429   000FAE                     RCREG           equ	4014	;# 
   430   000FAE                     RCREG1          equ	4014	;# 
   431   000FAF                     SPBRG           equ	4015	;# 
   432   000FAF                     SPBRG1          equ	4015	;# 
   433   000FB0                     SPBRGH          equ	4016	;# 
   434   000FB1                     T3CON           equ	4017	;# 
   435   000FB2                     TMR3            equ	4018	;# 
   436   000FB2                     TMR3L           equ	4018	;# 
   437   000FB3                     TMR3H           equ	4019	;# 
   438   000FB4                     CMCON           equ	4020	;# 
   439   000FB5                     CVRCON          equ	4021	;# 
   440   000FB6                     ECCP1AS         equ	4022	;# 
   441   000FB6                     ECCPAS          equ	4022	;# 
   442   000FB7                     PWM1CON         equ	4023	;# 
   443   000FB7                     ECCP1DEL        equ	4023	;# 
   444   000FB8                     BAUDCON         equ	4024	;# 
   445   000FB8                     BAUDCTL         equ	4024	;# 
   446   000FBA                     CCP2CON         equ	4026	;# 
   447   000FBB                     CCPR2           equ	4027	;# 
   448   000FBB                     CCPR2L          equ	4027	;# 
   449   000FBC                     CCPR2H          equ	4028	;# 
   450   000FBD                     CCP1CON         equ	4029	;# 
   451   000FBE                     CCPR1           equ	4030	;# 
   452   000FBE                     CCPR1L          equ	4030	;# 
   453   000FBF                     CCPR1H          equ	4031	;# 
   454   000FC0                     ADCON2          equ	4032	;# 
   455   000FC1                     ADCON1          equ	4033	;# 
   456   000FC2                     ADCON0          equ	4034	;# 
   457   000FC3                     ADRES           equ	4035	;# 
   458   000FC3                     ADRESL          equ	4035	;# 
   459   000FC4                     ADRESH          equ	4036	;# 
   460   000FC5                     SSPCON2         equ	4037	;# 
   461   000FC6                     SSPCON1         equ	4038	;# 
   462   000FC7                     SSPSTAT         equ	4039	;# 
   463   000FC8                     SSPADD          equ	4040	;# 
   464   000FC9                     SSPBUF          equ	4041	;# 
   465   000FCA                     T2CON           equ	4042	;# 
   466   000FCB                     PR2             equ	4043	;# 
   467   000FCB                     MEMCON          equ	4043	;# 
   468   000FCC                     TMR2            equ	4044	;# 
   469   000FCD                     T1CON           equ	4045	;# 
   470   000FCE                     TMR1            equ	4046	;# 
   471   000FCE                     TMR1L           equ	4046	;# 
   472   000FCF                     TMR1H           equ	4047	;# 
   473   000FD0                     RCON            equ	4048	;# 
   474   000FD1                     WDTCON          equ	4049	;# 
   475   000FD2                     HLVDCON         equ	4050	;# 
   476   000FD2                     LVDCON          equ	4050	;# 
   477   000FD3                     OSCCON          equ	4051	;# 
   478   000FD5                     T0CON           equ	4053	;# 
   479   000FD6                     TMR0            equ	4054	;# 
   480   000FD6                     TMR0L           equ	4054	;# 
   481   000FD7                     TMR0H           equ	4055	;# 
   482   000FD8                     STATUS          equ	4056	;# 
   483   000FD9                     FSR2            equ	4057	;# 
   484   000FD9                     FSR2L           equ	4057	;# 
   485   000FDA                     FSR2H           equ	4058	;# 
   486   000FDB                     PLUSW2          equ	4059	;# 
   487   000FDC                     PREINC2         equ	4060	;# 
   488   000FDD                     POSTDEC2        equ	4061	;# 
   489   000FDE                     POSTINC2        equ	4062	;# 
   490   000FDF                     INDF2           equ	4063	;# 
   491   000FE0                     BSR             equ	4064	;# 
   492   000FE1                     FSR1            equ	4065	;# 
   493   000FE1                     FSR1L           equ	4065	;# 
   494   000FE2                     FSR1H           equ	4066	;# 
   495   000FE3                     PLUSW1          equ	4067	;# 
   496   000FE4                     PREINC1         equ	4068	;# 
   497   000FE5                     POSTDEC1        equ	4069	;# 
   498   000FE6                     POSTINC1        equ	4070	;# 
   499   000FE7                     INDF1           equ	4071	;# 
   500   000FE8                     WREG            equ	4072	;# 
   501   000FE9                     FSR0            equ	4073	;# 
   502   000FE9                     FSR0L           equ	4073	;# 
   503   000FEA                     FSR0H           equ	4074	;# 
   504   000FEB                     PLUSW0          equ	4075	;# 
   505   000FEC                     PREINC0         equ	4076	;# 
   506   000FED                     POSTDEC0        equ	4077	;# 
   507   000FEE                     POSTINC0        equ	4078	;# 
   508   000FEF                     INDF0           equ	4079	;# 
   509   000FF0                     INTCON3         equ	4080	;# 
   510   000FF1                     INTCON2         equ	4081	;# 
   511   000FF2                     INTCON          equ	4082	;# 
   512   000FF3                     PROD            equ	4083	;# 
   513   000FF3                     PRODL           equ	4083	;# 
   514   000FF4                     PRODH           equ	4084	;# 
   515   000FF5                     TABLAT          equ	4085	;# 
   516   000FF6                     TBLPTR          equ	4086	;# 
   517   000FF6                     TBLPTRL         equ	4086	;# 
   518   000FF7                     TBLPTRH         equ	4087	;# 
   519   000FF8                     TBLPTRU         equ	4088	;# 
   520   000FF9                     PCLAT           equ	4089	;# 
   521   000FF9                     PC              equ	4089	;# 
   522   000FF9                     PCL             equ	4089	;# 
   523   000FFA                     PCLATH          equ	4090	;# 
   524   000FFB                     PCLATU          equ	4091	;# 
   525   000FFC                     STKPTR          equ	4092	;# 
   526   000FFD                     TOS             equ	4093	;# 
   527   000FFD                     TOSL            equ	4093	;# 
   528   000FFE                     TOSH            equ	4094	;# 
   529   000FFF                     TOSU            equ	4095	;# 
   530   000F80                     PORTA           equ	3968	;# 
   531   000F81                     PORTB           equ	3969	;# 
   532   000F82                     PORTC           equ	3970	;# 
   533   000F83                     PORTD           equ	3971	;# 
   534   000F84                     PORTE           equ	3972	;# 
   535   000F89                     LATA            equ	3977	;# 
   536   000F8A                     LATB            equ	3978	;# 
   537   000F8B                     LATC            equ	3979	;# 
   538   000F8C                     LATD            equ	3980	;# 
   539   000F8D                     LATE            equ	3981	;# 
   540   000F92                     TRISA           equ	3986	;# 
   541   000F92                     DDRA            equ	3986	;# 
   542   000F93                     TRISB           equ	3987	;# 
   543   000F93                     DDRB            equ	3987	;# 
   544   000F94                     TRISC           equ	3988	;# 
   545   000F94                     DDRC            equ	3988	;# 
   546   000F95                     TRISD           equ	3989	;# 
   547   000F95                     DDRD            equ	3989	;# 
   548   000F96                     TRISE           equ	3990	;# 
   549   000F96                     DDRE            equ	3990	;# 
   550   000F9B                     OSCTUNE         equ	3995	;# 
   551   000F9D                     PIE1            equ	3997	;# 
   552   000F9E                     PIR1            equ	3998	;# 
   553   000F9F                     IPR1            equ	3999	;# 
   554   000FA0                     PIE2            equ	4000	;# 
   555   000FA1                     PIR2            equ	4001	;# 
   556   000FA2                     IPR2            equ	4002	;# 
   557   000FA6                     EECON1          equ	4006	;# 
   558   000FA7                     EECON2          equ	4007	;# 
   559   000FA8                     EEDATA          equ	4008	;# 
   560   000FA9                     EEADR           equ	4009	;# 
   561   000FAB                     RCSTA           equ	4011	;# 
   562   000FAB                     RCSTA1          equ	4011	;# 
   563   000FAC                     TXSTA           equ	4012	;# 
   564   000FAC                     TXSTA1          equ	4012	;# 
   565   000FAD                     TXREG           equ	4013	;# 
   566   000FAD                     TXREG1          equ	4013	;# 
   567   000FAE                     RCREG           equ	4014	;# 
   568   000FAE                     RCREG1          equ	4014	;# 
   569   000FAF                     SPBRG           equ	4015	;# 
   570   000FAF                     SPBRG1          equ	4015	;# 
   571   000FB0                     SPBRGH          equ	4016	;# 
   572   000FB1                     T3CON           equ	4017	;# 
   573   000FB2                     TMR3            equ	4018	;# 
   574   000FB2                     TMR3L           equ	4018	;# 
   575   000FB3                     TMR3H           equ	4019	;# 
   576   000FB4                     CMCON           equ	4020	;# 
   577   000FB5                     CVRCON          equ	4021	;# 
   578   000FB6                     ECCP1AS         equ	4022	;# 
   579   000FB6                     ECCPAS          equ	4022	;# 
   580   000FB7                     PWM1CON         equ	4023	;# 
   581   000FB7                     ECCP1DEL        equ	4023	;# 
   582   000FB8                     BAUDCON         equ	4024	;# 
   583   000FB8                     BAUDCTL         equ	4024	;# 
   584   000FBA                     CCP2CON         equ	4026	;# 
   585   000FBB                     CCPR2           equ	4027	;# 
   586   000FBB                     CCPR2L          equ	4027	;# 
   587   000FBC                     CCPR2H          equ	4028	;# 
   588   000FBD                     CCP1CON         equ	4029	;# 
   589   000FBE                     CCPR1           equ	4030	;# 
   590   000FBE                     CCPR1L          equ	4030	;# 
   591   000FBF                     CCPR1H          equ	4031	;# 
   592   000FC0                     ADCON2          equ	4032	;# 
   593   000FC1                     ADCON1          equ	4033	;# 
   594   000FC2                     ADCON0          equ	4034	;# 
   595   000FC3                     ADRES           equ	4035	;# 
   596   000FC3                     ADRESL          equ	4035	;# 
   597   000FC4                     ADRESH          equ	4036	;# 
   598   000FC5                     SSPCON2         equ	4037	;# 
   599   000FC6                     SSPCON1         equ	4038	;# 
   600   000FC7                     SSPSTAT         equ	4039	;# 
   601   000FC8                     SSPADD          equ	4040	;# 
   602   000FC9                     SSPBUF          equ	4041	;# 
   603   000FCA                     T2CON           equ	4042	;# 
   604   000FCB                     PR2             equ	4043	;# 
   605   000FCB                     MEMCON          equ	4043	;# 
   606   000FCC                     TMR2            equ	4044	;# 
   607   000FCD                     T1CON           equ	4045	;# 
   608   000FCE                     TMR1            equ	4046	;# 
   609   000FCE                     TMR1L           equ	4046	;# 
   610   000FCF                     TMR1H           equ	4047	;# 
   611   000FD0                     RCON            equ	4048	;# 
   612   000FD1                     WDTCON          equ	4049	;# 
   613   000FD2                     HLVDCON         equ	4050	;# 
   614   000FD2                     LVDCON          equ	4050	;# 
   615   000FD3                     OSCCON          equ	4051	;# 
   616   000FD5                     T0CON           equ	4053	;# 
   617   000FD6                     TMR0            equ	4054	;# 
   618   000FD6                     TMR0L           equ	4054	;# 
   619   000FD7                     TMR0H           equ	4055	;# 
   620   000FD8                     STATUS          equ	4056	;# 
   621   000FD9                     FSR2            equ	4057	;# 
   622   000FD9                     FSR2L           equ	4057	;# 
   623   000FDA                     FSR2H           equ	4058	;# 
   624   000FDB                     PLUSW2          equ	4059	;# 
   625   000FDC                     PREINC2         equ	4060	;# 
   626   000FDD                     POSTDEC2        equ	4061	;# 
   627   000FDE                     POSTINC2        equ	4062	;# 
   628   000FDF                     INDF2           equ	4063	;# 
   629   000FE0                     BSR             equ	4064	;# 
   630   000FE1                     FSR1            equ	4065	;# 
   631   000FE1                     FSR1L           equ	4065	;# 
   632   000FE2                     FSR1H           equ	4066	;# 
   633   000FE3                     PLUSW1          equ	4067	;# 
   634   000FE4                     PREINC1         equ	4068	;# 
   635   000FE5                     POSTDEC1        equ	4069	;# 
   636   000FE6                     POSTINC1        equ	4070	;# 
   637   000FE7                     INDF1           equ	4071	;# 
   638   000FE8                     WREG            equ	4072	;# 
   639   000FE9                     FSR0            equ	4073	;# 
   640   000FE9                     FSR0L           equ	4073	;# 
   641   000FEA                     FSR0H           equ	4074	;# 
   642   000FEB                     PLUSW0          equ	4075	;# 
   643   000FEC                     PREINC0         equ	4076	;# 
   644   000FED                     POSTDEC0        equ	4077	;# 
   645   000FEE                     POSTINC0        equ	4078	;# 
   646   000FEF                     INDF0           equ	4079	;# 
   647   000FF0                     INTCON3         equ	4080	;# 
   648   000FF1                     INTCON2         equ	4081	;# 
   649   000FF2                     INTCON          equ	4082	;# 
   650   000FF3                     PROD            equ	4083	;# 
   651   000FF3                     PRODL           equ	4083	;# 
   652   000FF4                     PRODH           equ	4084	;# 
   653   000FF5                     TABLAT          equ	4085	;# 
   654   000FF6                     TBLPTR          equ	4086	;# 
   655   000FF6                     TBLPTRL         equ	4086	;# 
   656   000FF7                     TBLPTRH         equ	4087	;# 
   657   000FF8                     TBLPTRU         equ	4088	;# 
   658   000FF9                     PCLAT           equ	4089	;# 
   659   000FF9                     PC              equ	4089	;# 
   660   000FF9                     PCL             equ	4089	;# 
   661   000FFA                     PCLATH          equ	4090	;# 
   662   000FFB                     PCLATU          equ	4091	;# 
   663   000FFC                     STKPTR          equ	4092	;# 
   664   000FFD                     TOS             equ	4093	;# 
   665   000FFD                     TOSL            equ	4093	;# 
   666   000FFE                     TOSH            equ	4094	;# 
   667   000FFF                     TOSU            equ	4095	;# 
   668   000F80                     PORTA           equ	3968	;# 
   669   000F81                     PORTB           equ	3969	;# 
   670   000F82                     PORTC           equ	3970	;# 
   671   000F83                     PORTD           equ	3971	;# 
   672   000F84                     PORTE           equ	3972	;# 
   673   000F89                     LATA            equ	3977	;# 
   674   000F8A                     LATB            equ	3978	;# 
   675   000F8B                     LATC            equ	3979	;# 
   676   000F8C                     LATD            equ	3980	;# 
   677   000F8D                     LATE            equ	3981	;# 
   678   000F92                     TRISA           equ	3986	;# 
   679   000F92                     DDRA            equ	3986	;# 
   680   000F93                     TRISB           equ	3987	;# 
   681   000F93                     DDRB            equ	3987	;# 
   682   000F94                     TRISC           equ	3988	;# 
   683   000F94                     DDRC            equ	3988	;# 
   684   000F95                     TRISD           equ	3989	;# 
   685   000F95                     DDRD            equ	3989	;# 
   686   000F96                     TRISE           equ	3990	;# 
   687   000F96                     DDRE            equ	3990	;# 
   688   000F9B                     OSCTUNE         equ	3995	;# 
   689   000F9D                     PIE1            equ	3997	;# 
   690   000F9E                     PIR1            equ	3998	;# 
   691   000F9F                     IPR1            equ	3999	;# 
   692   000FA0                     PIE2            equ	4000	;# 
   693   000FA1                     PIR2            equ	4001	;# 
   694   000FA2                     IPR2            equ	4002	;# 
   695   000FA6                     EECON1          equ	4006	;# 
   696   000FA7                     EECON2          equ	4007	;# 
   697   000FA8                     EEDATA          equ	4008	;# 
   698   000FA9                     EEADR           equ	4009	;# 
   699   000FAB                     RCSTA           equ	4011	;# 
   700   000FAB                     RCSTA1          equ	4011	;# 
   701   000FAC                     TXSTA           equ	4012	;# 
   702   000FAC                     TXSTA1          equ	4012	;# 
   703   000FAD                     TXREG           equ	4013	;# 
   704   000FAD                     TXREG1          equ	4013	;# 
   705   000FAE                     RCREG           equ	4014	;# 
   706   000FAE                     RCREG1          equ	4014	;# 
   707   000FAF                     SPBRG           equ	4015	;# 
   708   000FAF                     SPBRG1          equ	4015	;# 
   709   000FB0                     SPBRGH          equ	4016	;# 
   710   000FB1                     T3CON           equ	4017	;# 
   711   000FB2                     TMR3            equ	4018	;# 
   712   000FB2                     TMR3L           equ	4018	;# 
   713   000FB3                     TMR3H           equ	4019	;# 
   714   000FB4                     CMCON           equ	4020	;# 
   715   000FB5                     CVRCON          equ	4021	;# 
   716   000FB6                     ECCP1AS         equ	4022	;# 
   717   000FB6                     ECCPAS          equ	4022	;# 
   718   000FB7                     PWM1CON         equ	4023	;# 
   719   000FB7                     ECCP1DEL        equ	4023	;# 
   720   000FB8                     BAUDCON         equ	4024	;# 
   721   000FB8                     BAUDCTL         equ	4024	;# 
   722   000FBA                     CCP2CON         equ	4026	;# 
   723   000FBB                     CCPR2           equ	4027	;# 
   724   000FBB                     CCPR2L          equ	4027	;# 
   725   000FBC                     CCPR2H          equ	4028	;# 
   726   000FBD                     CCP1CON         equ	4029	;# 
   727   000FBE                     CCPR1           equ	4030	;# 
   728   000FBE                     CCPR1L          equ	4030	;# 
   729   000FBF                     CCPR1H          equ	4031	;# 
   730   000FC0                     ADCON2          equ	4032	;# 
   731   000FC1                     ADCON1          equ	4033	;# 
   732   000FC2                     ADCON0          equ	4034	;# 
   733   000FC3                     ADRES           equ	4035	;# 
   734   000FC3                     ADRESL          equ	4035	;# 
   735   000FC4                     ADRESH          equ	4036	;# 
   736   000FC5                     SSPCON2         equ	4037	;# 
   737   000FC6                     SSPCON1         equ	4038	;# 
   738   000FC7                     SSPSTAT         equ	4039	;# 
   739   000FC8                     SSPADD          equ	4040	;# 
   740   000FC9                     SSPBUF          equ	4041	;# 
   741   000FCA                     T2CON           equ	4042	;# 
   742   000FCB                     PR2             equ	4043	;# 
   743   000FCB                     MEMCON          equ	4043	;# 
   744   000FCC                     TMR2            equ	4044	;# 
   745   000FCD                     T1CON           equ	4045	;# 
   746   000FCE                     TMR1            equ	4046	;# 
   747   000FCE                     TMR1L           equ	4046	;# 
   748   000FCF                     TMR1H           equ	4047	;# 
   749   000FD0                     RCON            equ	4048	;# 
   750   000FD1                     WDTCON          equ	4049	;# 
   751   000FD2                     HLVDCON         equ	4050	;# 
   752   000FD2                     LVDCON          equ	4050	;# 
   753   000FD3                     OSCCON          equ	4051	;# 
   754   000FD5                     T0CON           equ	4053	;# 
   755   000FD6                     TMR0            equ	4054	;# 
   756   000FD6                     TMR0L           equ	4054	;# 
   757   000FD7                     TMR0H           equ	4055	;# 
   758   000FD8                     STATUS          equ	4056	;# 
   759   000FD9                     FSR2            equ	4057	;# 
   760   000FD9                     FSR2L           equ	4057	;# 
   761   000FDA                     FSR2H           equ	4058	;# 
   762   000FDB                     PLUSW2          equ	4059	;# 
   763   000FDC                     PREINC2         equ	4060	;# 
   764   000FDD                     POSTDEC2        equ	4061	;# 
   765   000FDE                     POSTINC2        equ	4062	;# 
   766   000FDF                     INDF2           equ	4063	;# 
   767   000FE0                     BSR             equ	4064	;# 
   768   000FE1                     FSR1            equ	4065	;# 
   769   000FE1                     FSR1L           equ	4065	;# 
   770   000FE2                     FSR1H           equ	4066	;# 
   771   000FE3                     PLUSW1          equ	4067	;# 
   772   000FE4                     PREINC1         equ	4068	;# 
   773   000FE5                     POSTDEC1        equ	4069	;# 
   774   000FE6                     POSTINC1        equ	4070	;# 
   775   000FE7                     INDF1           equ	4071	;# 
   776   000FE8                     WREG            equ	4072	;# 
   777   000FE9                     FSR0            equ	4073	;# 
   778   000FE9                     FSR0L           equ	4073	;# 
   779   000FEA                     FSR0H           equ	4074	;# 
   780   000FEB                     PLUSW0          equ	4075	;# 
   781   000FEC                     PREINC0         equ	4076	;# 
   782   000FED                     POSTDEC0        equ	4077	;# 
   783   000FEE                     POSTINC0        equ	4078	;# 
   784   000FEF                     INDF0           equ	4079	;# 
   785   000FF0                     INTCON3         equ	4080	;# 
   786   000FF1                     INTCON2         equ	4081	;# 
   787   000FF2                     INTCON          equ	4082	;# 
   788   000FF3                     PROD            equ	4083	;# 
   789   000FF3                     PRODL           equ	4083	;# 
   790   000FF4                     PRODH           equ	4084	;# 
   791   000FF5                     TABLAT          equ	4085	;# 
   792   000FF6                     TBLPTR          equ	4086	;# 
   793   000FF6                     TBLPTRL         equ	4086	;# 
   794   000FF7                     TBLPTRH         equ	4087	;# 
   795   000FF8                     TBLPTRU         equ	4088	;# 
   796   000FF9                     PCLAT           equ	4089	;# 
   797   000FF9                     PC              equ	4089	;# 
   798   000FF9                     PCL             equ	4089	;# 
   799   000FFA                     PCLATH          equ	4090	;# 
   800   000FFB                     PCLATU          equ	4091	;# 
   801   000FFC                     STKPTR          equ	4092	;# 
   802   000FFD                     TOS             equ	4093	;# 
   803   000FFD                     TOSL            equ	4093	;# 
   804   000FFE                     TOSH            equ	4094	;# 
   805   000FFF                     TOSU            equ	4095	;# 
   806   000F80                     PORTA           equ	3968	;# 
   807   000F81                     PORTB           equ	3969	;# 
   808   000F82                     PORTC           equ	3970	;# 
   809   000F83                     PORTD           equ	3971	;# 
   810   000F84                     PORTE           equ	3972	;# 
   811   000F89                     LATA            equ	3977	;# 
   812   000F8A                     LATB            equ	3978	;# 
   813   000F8B                     LATC            equ	3979	;# 
   814   000F8C                     LATD            equ	3980	;# 
   815   000F8D                     LATE            equ	3981	;# 
   816   000F92                     TRISA           equ	3986	;# 
   817   000F92                     DDRA            equ	3986	;# 
   818   000F93                     TRISB           equ	3987	;# 
   819   000F93                     DDRB            equ	3987	;# 
   820   000F94                     TRISC           equ	3988	;# 
   821   000F94                     DDRC            equ	3988	;# 
   822   000F95                     TRISD           equ	3989	;# 
   823   000F95                     DDRD            equ	3989	;# 
   824   000F96                     TRISE           equ	3990	;# 
   825   000F96                     DDRE            equ	3990	;# 
   826   000F9B                     OSCTUNE         equ	3995	;# 
   827   000F9D                     PIE1            equ	3997	;# 
   828   000F9E                     PIR1            equ	3998	;# 
   829   000F9F                     IPR1            equ	3999	;# 
   830   000FA0                     PIE2            equ	4000	;# 
   831   000FA1                     PIR2            equ	4001	;# 
   832   000FA2                     IPR2            equ	4002	;# 
   833   000FA6                     EECON1          equ	4006	;# 
   834   000FA7                     EECON2          equ	4007	;# 
   835   000FA8                     EEDATA          equ	4008	;# 
   836   000FA9                     EEADR           equ	4009	;# 
   837   000FAB                     RCSTA           equ	4011	;# 
   838   000FAB                     RCSTA1          equ	4011	;# 
   839   000FAC                     TXSTA           equ	4012	;# 
   840   000FAC                     TXSTA1          equ	4012	;# 
   841   000FAD                     TXREG           equ	4013	;# 
   842   000FAD                     TXREG1          equ	4013	;# 
   843   000FAE                     RCREG           equ	4014	;# 
   844   000FAE                     RCREG1          equ	4014	;# 
   845   000FAF                     SPBRG           equ	4015	;# 
   846   000FAF                     SPBRG1          equ	4015	;# 
   847   000FB0                     SPBRGH          equ	4016	;# 
   848   000FB1                     T3CON           equ	4017	;# 
   849   000FB2                     TMR3            equ	4018	;# 
   850   000FB2                     TMR3L           equ	4018	;# 
   851   000FB3                     TMR3H           equ	4019	;# 
   852   000FB4                     CMCON           equ	4020	;# 
   853   000FB5                     CVRCON          equ	4021	;# 
   854   000FB6                     ECCP1AS         equ	4022	;# 
   855   000FB6                     ECCPAS          equ	4022	;# 
   856   000FB7                     PWM1CON         equ	4023	;# 
   857   000FB7                     ECCP1DEL        equ	4023	;# 
   858   000FB8                     BAUDCON         equ	4024	;# 
   859   000FB8                     BAUDCTL         equ	4024	;# 
   860   000FBA                     CCP2CON         equ	4026	;# 
   861   000FBB                     CCPR2           equ	4027	;# 
   862   000FBB                     CCPR2L          equ	4027	;# 
   863   000FBC                     CCPR2H          equ	4028	;# 
   864   000FBD                     CCP1CON         equ	4029	;# 
   865   000FBE                     CCPR1           equ	4030	;# 
   866   000FBE                     CCPR1L          equ	4030	;# 
   867   000FBF                     CCPR1H          equ	4031	;# 
   868   000FC0                     ADCON2          equ	4032	;# 
   869   000FC1                     ADCON1          equ	4033	;# 
   870   000FC2                     ADCON0          equ	4034	;# 
   871   000FC3                     ADRES           equ	4035	;# 
   872   000FC3                     ADRESL          equ	4035	;# 
   873   000FC4                     ADRESH          equ	4036	;# 
   874   000FC5                     SSPCON2         equ	4037	;# 
   875   000FC6                     SSPCON1         equ	4038	;# 
   876   000FC7                     SSPSTAT         equ	4039	;# 
   877   000FC8                     SSPADD          equ	4040	;# 
   878   000FC9                     SSPBUF          equ	4041	;# 
   879   000FCA                     T2CON           equ	4042	;# 
   880   000FCB                     PR2             equ	4043	;# 
   881   000FCB                     MEMCON          equ	4043	;# 
   882   000FCC                     TMR2            equ	4044	;# 
   883   000FCD                     T1CON           equ	4045	;# 
   884   000FCE                     TMR1            equ	4046	;# 
   885   000FCE                     TMR1L           equ	4046	;# 
   886   000FCF                     TMR1H           equ	4047	;# 
   887   000FD0                     RCON            equ	4048	;# 
   888   000FD1                     WDTCON          equ	4049	;# 
   889   000FD2                     HLVDCON         equ	4050	;# 
   890   000FD2                     LVDCON          equ	4050	;# 
   891   000FD3                     OSCCON          equ	4051	;# 
   892   000FD5                     T0CON           equ	4053	;# 
   893   000FD6                     TMR0            equ	4054	;# 
   894   000FD6                     TMR0L           equ	4054	;# 
   895   000FD7                     TMR0H           equ	4055	;# 
   896   000FD8                     STATUS          equ	4056	;# 
   897   000FD9                     FSR2            equ	4057	;# 
   898   000FD9                     FSR2L           equ	4057	;# 
   899   000FDA                     FSR2H           equ	4058	;# 
   900   000FDB                     PLUSW2          equ	4059	;# 
   901   000FDC                     PREINC2         equ	4060	;# 
   902   000FDD                     POSTDEC2        equ	4061	;# 
   903   000FDE                     POSTINC2        equ	4062	;# 
   904   000FDF                     INDF2           equ	4063	;# 
   905   000FE0                     BSR             equ	4064	;# 
   906   000FE1                     FSR1            equ	4065	;# 
   907   000FE1                     FSR1L           equ	4065	;# 
   908   000FE2                     FSR1H           equ	4066	;# 
   909   000FE3                     PLUSW1          equ	4067	;# 
   910   000FE4                     PREINC1         equ	4068	;# 
   911   000FE5                     POSTDEC1        equ	4069	;# 
   912   000FE6                     POSTINC1        equ	4070	;# 
   913   000FE7                     INDF1           equ	4071	;# 
   914   000FE8                     WREG            equ	4072	;# 
   915   000FE9                     FSR0            equ	4073	;# 
   916   000FE9                     FSR0L           equ	4073	;# 
   917   000FEA                     FSR0H           equ	4074	;# 
   918   000FEB                     PLUSW0          equ	4075	;# 
   919   000FEC                     PREINC0         equ	4076	;# 
   920   000FED                     POSTDEC0        equ	4077	;# 
   921   000FEE                     POSTINC0        equ	4078	;# 
   922   000FEF                     INDF0           equ	4079	;# 
   923   000FF0                     INTCON3         equ	4080	;# 
   924   000FF1                     INTCON2         equ	4081	;# 
   925   000FF2                     INTCON          equ	4082	;# 
   926   000FF3                     PROD            equ	4083	;# 
   927   000FF3                     PRODL           equ	4083	;# 
   928   000FF4                     PRODH           equ	4084	;# 
   929   000FF5                     TABLAT          equ	4085	;# 
   930   000FF6                     TBLPTR          equ	4086	;# 
   931   000FF6                     TBLPTRL         equ	4086	;# 
   932   000FF7                     TBLPTRH         equ	4087	;# 
   933   000FF8                     TBLPTRU         equ	4088	;# 
   934   000FF9                     PCLAT           equ	4089	;# 
   935   000FF9                     PC              equ	4089	;# 
   936   000FF9                     PCL             equ	4089	;# 
   937   000FFA                     PCLATH          equ	4090	;# 
   938   000FFB                     PCLATU          equ	4091	;# 
   939   000FFC                     STKPTR          equ	4092	;# 
   940   000FFD                     TOS             equ	4093	;# 
   941   000FFD                     TOSL            equ	4093	;# 
   942   000FFE                     TOSH            equ	4094	;# 
   943   000FFF                     TOSU            equ	4095	;# 
   944   007E07                     _ADFM           set	32263
   945   007D5C                     _CREN           set	32092
   946   007CF5                     _RCIF           set	31989
   947   007E9C                     _IRCF0          set	32412
   948   007E9D                     _IRCF1          set	32413
   949   007E9E                     _IRCF2          set	32414
   950   000F95                     _TRISD          set	3989
   951   000F93                     _TRISBbits      set	3987
   952   000F8C                     _LATD           set	3980
   953   000F81                     _PORTBbits      set	3969
   954   000F92                     _TRISA          set	3986
   955   000F94                     _TRISCbits      set	3988
   956   000FC2                     _ADCON0bits     set	4034
   957   000FC3                     _ADRESL         set	4035
   958   000FC4                     _ADRESH         set	4036
   959   000FC0                     _ADCON2bits     set	4032
   960   000FC1                     _ADCON1         set	4033
   961   000FBD                     _CCP1CON        set	4029
   962   000FD0                     _RCONbits       set	4048
   963   000FAE                     _RCREG          set	4014
   964   000FAD                     _TXREG          set	4013
   965   000F9F                     _IPR1bits       set	3999
   966   000F9D                     _PIE1bits       set	3997
   967   000F9E                     _PIR1bits       set	3998
   968   000FAB                     _RCSTAbits      set	4011
   969   000FAF                     _SPBRG          set	4015
   970   000FB8                     _BAUDCONbits    set	4024
   971   000FAC                     _TXSTAbits      set	4012
   972   000FF1                     _INTCON2bits    set	4081
   973   000FF2                     _INTCONbits     set	4082
   974                           
   975                           	psect	smallconst
   976   000600                     __psmallconst:
   977                           	callstack 0
   978   000600  00                 	db	0
   979   000601                     STR_1:
   980   000601  25                 	db	37
   981   000602  64                 	db	100	;'d'
   982   000603  00                 	db	0
   983   000604                     STR_2:
   984   000604  30                 	db	48	;'0'
   985   000605  00                 	db	0
   986   000606  00                 	db	0	; dummy byte at the end
   987   000600                     __smallconst    set	__psmallconst
   988   000600                     __mediumconst   set	__psmallconst
   989   000002                     __activetblptr  equ	2
   990                           
   991                           ; #config settings
   992                           
   993                           	psect	cinit
   994   000DAE                     __pcinit:
   995                           	callstack 0
   996   000DAE                     start_initialization:
   997                           	callstack 0
   998   000DAE                     __initialization:
   999                           	callstack 0
  1000                           
  1001                           ; Clear objects allocated to BANK0 (32 bytes)
  1002   000DAE  EE00  F080         	lfsr	0,__pbssBANK0
  1003   000DB2  0E20               	movlw	32
  1004   000DB4                     clear_0:
  1005   000DB4  6AEE               	clrf	postinc0,c
  1006   000DB6  06E8               	decf	wreg,f,c
  1007   000DB8  E1FD               	bnz	clear_0
  1008                           
  1009                           ; Clear objects allocated to COMRAM (29 bytes)
  1010   000DBA  EE00  F049         	lfsr	0,__pbssCOMRAM
  1011   000DBE  0E1D               	movlw	29
  1012   000DC0                     clear_1:
  1013   000DC0  6AEE               	clrf	postinc0,c
  1014   000DC2  06E8               	decf	wreg,f,c
  1015   000DC4  E1FD               	bnz	clear_1
  1016   000DC6                     end_of_initialization:
  1017                           	callstack 0
  1018   000DC6                     __end_of__initialization:
  1019                           	callstack 0
  1020   000DC6  9066               	bcf	int$flags,0,c	;clear compiler interrupt flag (level 1)
  1021   000DC8  9266               	bcf	int$flags,1,c	;clear compiler interrupt flag (level 2)
  1022   000DCA  0E00               	movlw	low (__Lmediumconst shr (0+16))
  1023   000DCC  6EF8               	movwf	tblptru,c
  1024   000DCE  0100               	movlb	0
  1025   000DD0  EFC0  F006         	goto	_main	;jump to C main() function
  1026                           
  1027                           	psect	bssCOMRAM
  1028   000049                     __pbssCOMRAM:
  1029                           	callstack 0
  1030   000049                     _width:
  1031                           	callstack 0
  1032   000049                     	ds	2
  1033   00004B                     _prec:
  1034                           	callstack 0
  1035   00004B                     	ds	2
  1036   00004D                     _counter:
  1037                           	callstack 0
  1038   00004D                     	ds	2
  1039   00004F                     _lenStr:
  1040                           	callstack 0
  1041   00004F                     	ds	2
  1042   000051                     _flags:
  1043                           	callstack 0
  1044   000051                     	ds	1
  1045   000052                     _mystring:
  1046                           	callstack 0
  1047   000052                     	ds	20
  1048                           
  1049                           	psect	bssBANK0
  1050   000080                     __pbssBANK0:
  1051                           	callstack 0
  1052   000080                     _dbuf:
  1053                           	callstack 0
  1054   000080                     	ds	32
  1055                           
  1056                           	psect	cstackBANK0
  1057   0000A0                     __pcstackBANK0:
  1058                           	callstack 0
  1059   0000A0                     i1UART_Write@data:
  1060                           	callstack 0
  1061   0000A0                     
  1062                           ; 1 bytes @ 0x0
  1063   0000A0                     	ds	1
  1064   0000A1                     MyusartRead@data:
  1065                           	callstack 0
  1066   0000A1                     
  1067                           ; 1 bytes @ 0x1
  1068   0000A1                     	ds	1
  1069   0000A2                     ??_Lo_ISR:
  1070                           
  1071                           ; 1 bytes @ 0x2
  1072   0000A2                     	ds	5
  1073   0000A7                     UART_Write@data:
  1074                           	callstack 0
  1075   0000A7                     
  1076                           ; 1 bytes @ 0x7
  1077   0000A7                     	ds	1
  1078   0000A8                     UART_Write_Text@text:
  1079                           	callstack 0
  1080                           
  1081                           ; 2 bytes @ 0x8
  1082   0000A8                     	ds	2
  1083   0000AA                     ??_UART_Write_Text:
  1084                           
  1085                           ; 1 bytes @ 0xA
  1086   0000AA                     	ds	2
  1087   0000AC                     UART_Write_Text@i:
  1088                           	callstack 0
  1089                           
  1090                           ; 2 bytes @ 0xC
  1091   0000AC                     	ds	2
  1092   0000AE                     
  1093                           ; 1 bytes @ 0xE
  1094                           
  1095                           	psect	cstackCOMRAM
  1096   000001                     __pcstackCOMRAM:
  1097                           	callstack 0
  1098   000001                     ?___awdiv:
  1099                           	callstack 0
  1100   000001                     ?___awmod:
  1101                           	callstack 0
  1102   000001                     i2UART_Write@data:
  1103                           	callstack 0
  1104   000001                     ___awdiv@dividend:
  1105                           	callstack 0
  1106   000001                     ___awmod@dividend:
  1107                           	callstack 0
  1108   000001                     fputc@c:
  1109                           	callstack 0
  1110   000001                     
  1111                           ; 1 bytes @ 0x0
  1112   000001                     	ds	1
  1113   000002                     i2UART_Write_Text@text:
  1114                           	callstack 0
  1115                           
  1116                           ; 2 bytes @ 0x1
  1117   000002                     	ds	1
  1118   000003                     fputc@fp:
  1119                           	callstack 0
  1120   000003                     ___awdiv@divisor:
  1121                           	callstack 0
  1122   000003                     ___awmod@divisor:
  1123                           	callstack 0
  1124                           
  1125                           ; 2 bytes @ 0x2
  1126   000003                     	ds	1
  1127   000004                     ??_fputc:
  1128   000004                     ??i2_UART_Write_Text:
  1129                           
  1130                           ; 1 bytes @ 0x3
  1131   000004                     	ds	1
  1132   000005                     ___awdiv@counter:
  1133                           	callstack 0
  1134   000005                     ___awmod@counter:
  1135                           	callstack 0
  1136   000005                     
  1137                           ; 1 bytes @ 0x4
  1138   000005                     	ds	1
  1139   000006                     ___awdiv@sign:
  1140                           	callstack 0
  1141   000006                     ___awmod@sign:
  1142                           	callstack 0
  1143   000006                     i2UART_Write_Text@i:
  1144                           	callstack 0
  1145                           
  1146                           ; 2 bytes @ 0x5
  1147   000006                     	ds	1
  1148   000007                     ?_abs:
  1149                           	callstack 0
  1150   000007                     ___awdiv@quotient:
  1151                           	callstack 0
  1152   000007                     abs@a:
  1153                           	callstack 0
  1154                           
  1155                           ; 2 bytes @ 0x6
  1156   000007                     	ds	2
  1157   000009                     ??_abs:
  1158                           
  1159                           ; 1 bytes @ 0x8
  1160   000009                     	ds	2
  1161   00000B                     vfpfcnvrt@fp:
  1162                           	callstack 0
  1163                           
  1164                           ; 1 bytes @ 0xA
  1165   00000B                     	ds	1
  1166   00000C                     vfpfcnvrt@fmt:
  1167                           	callstack 0
  1168                           
  1169                           ; 1 bytes @ 0xB
  1170   00000C                     	ds	1
  1171   00000D                     vfpfcnvrt@ap:
  1172                           	callstack 0
  1173                           
  1174                           ; 1 bytes @ 0xC
  1175   00000D                     	ds	1
  1176   00000E                     ??_vfpfcnvrt:
  1177                           
  1178                           ; 1 bytes @ 0xD
  1179   00000E                     	ds	1
  1180   00000F                     vfpfcnvrt@done:
  1181                           	callstack 0
  1182                           
  1183                           ; 1 bytes @ 0xE
  1184   00000F                     	ds	1
  1185   000010                     vfpfcnvrt@cp:
  1186                           	callstack 0
  1187                           
  1188                           ; 1 bytes @ 0xF
  1189   000010                     	ds	1
  1190   000011                     vfpfcnvrt@convarg:
  1191                           	callstack 0
  1192                           
  1193                           ; 4 bytes @ 0x10
  1194   000011                     	ds	4
  1195   000015                     vfpfcnvrt@c:
  1196                           	callstack 0
  1197                           
  1198                           ; 1 bytes @ 0x14
  1199   000015                     	ds	1
  1200   000016                     ?_vfprintf:
  1201                           	callstack 0
  1202   000016                     vfprintf@fp:
  1203                           	callstack 0
  1204                           
  1205                           ; 1 bytes @ 0x15
  1206   000016                     	ds	1
  1207   000017                     vfprintf@fmt:
  1208                           	callstack 0
  1209                           
  1210                           ; 1 bytes @ 0x16
  1211   000017                     	ds	1
  1212   000018                     vfprintf@ap:
  1213                           	callstack 0
  1214                           
  1215                           ; 1 bytes @ 0x17
  1216   000018                     	ds	1
  1217   000019                     vfprintf@cfmt:
  1218                           	callstack 0
  1219   000019                     
  1220                           ; 1 bytes @ 0x18
  1221   000019                     	ds	1
  1222   00001A                     ?_sprintf:
  1223                           	callstack 0
  1224   00001A                     sprintf@s:
  1225                           	callstack 0
  1226                           
  1227                           ; 1 bytes @ 0x19
  1228   00001A                     	ds	1
  1229   00001B                     sprintf@fmt:
  1230                           	callstack 0
  1231                           
  1232                           ; 1 bytes @ 0x1A
  1233   00001B                     	ds	3
  1234   00001E                     sprintf@ap:
  1235                           	callstack 0
  1236   00001E                     
  1237                           ; 1 bytes @ 0x1D
  1238   00001E                     	ds	1
  1239   00001F                     sprintf@f:
  1240                           	callstack 0
  1241                           
  1242                           ; 11 bytes @ 0x1E
  1243   00001F                     	ds	11
  1244   00002A                     ??_Hi_ISR:
  1245                           
  1246                           ; 1 bytes @ 0x29
  1247   00002A                     	ds	9
  1248   000033                     Hi_ISR@str_buf:
  1249                           	callstack 0
  1250                           
  1251                           ; 10 bytes @ 0x32
  1252   000033                     	ds	10
  1253   00003D                     Hi_ISR@old_val:
  1254                           	callstack 0
  1255                           
  1256                           ; 2 bytes @ 0x3C
  1257   00003D                     	ds	2
  1258   00003F                     Hi_ISR@i_932:
  1259                           	callstack 0
  1260                           
  1261                           ; 2 bytes @ 0x3E
  1262   00003F                     	ds	2
  1263   000041                     Hi_ISR@i_933:
  1264                           	callstack 0
  1265                           
  1266                           ; 2 bytes @ 0x40
  1267   000041                     	ds	2
  1268   000043                     Hi_ISR@i_934:
  1269                           	callstack 0
  1270                           
  1271                           ; 2 bytes @ 0x42
  1272   000043                     	ds	2
  1273   000045                     Hi_ISR@i:
  1274                           	callstack 0
  1275                           
  1276                           ; 2 bytes @ 0x44
  1277   000045                     	ds	2
  1278   000047                     Hi_ISR@digits:
  1279                           	callstack 0
  1280                           
  1281                           ; 2 bytes @ 0x46
  1282   000047                     	ds	2
  1283                           
  1284 ;;
  1285 ;;Main: autosize = 0, tempsize = 0, incstack = 0, save=0
  1286 ;;
  1287 ;; *************** function _main *****************
  1288 ;; Defined at:
  1289 ;;		line 46 in file "basic.c"
  1290 ;; Parameters:    Size  Location     Type
  1291 ;;		None
  1292 ;; Auto vars:     Size  Location     Type
  1293 ;;		None
  1294 ;; Return value:  Size  Location     Type
  1295 ;;                  1    wreg      void 
  1296 ;; Registers used:
  1297 ;;		wreg, fsr1l, fsr1h, status,2, status,0, tblptrl, tblptrh, tblptru, cstack
  1298 ;; Tracked objects:
  1299 ;;		On entry : 0/0
  1300 ;;		On exit  : 0/0
  1301 ;;		Unchanged: 0/0
  1302 ;; Data sizes:     COMRAM   BANK0   BANK1   BANK2   BANK3   BANK4   BANK5
  1303 ;;      Params:         0       0       0       0       0       0       0
  1304 ;;      Locals:         0       0       0       0       0       0       0
  1305 ;;      Temps:          0       0       0       0       0       0       0
  1306 ;;      Totals:         0       0       0       0       0       0       0
  1307 ;;Total ram usage:        0 bytes
  1308 ;; Hardware stack levels required when called: 11
  1309 ;; This function calls:
  1310 ;;		_SYSTEM_Initialize
  1311 ;;		_UART_Write_Text
  1312 ;; This function is called by:
  1313 ;;		Startup code after reset
  1314 ;; This function uses a non-reentrant model
  1315 ;;
  1316                           
  1317                           	psect	text0
  1318   000D80                     __ptext0:
  1319                           	callstack 0
  1320   000D80                     _main:
  1321                           	callstack 20
  1322   000D80                     
  1323                           ;basic.c: 47:     SYSTEM_Initialize();
  1324   000D80  EC13  F007         	call	_SYSTEM_Initialize	;wreg free
  1325   000D84                     
  1326                           ;basic.c: 50:     TRISBbits.TRISB0 = 1;
  1327   000D84  8093               	bsf	147,0,c	;volatile
  1328   000D86                     
  1329                           ;basic.c: 51:     TRISD &= 0x0F;
  1330   000D86  0E0F               	movlw	15
  1331   000D88  1695               	andwf	149,f,c	;volatile
  1332   000D8A                     
  1333                           ;basic.c: 52:     LATD &= 0x0F;
  1334   000D8A  0E0F               	movlw	15
  1335   000D8C  168C               	andwf	140,f,c	;volatile
  1336   000D8E                     
  1337                           ;basic.c: 55:     INTCONbits.INT0IF = 0;
  1338   000D8E  92F2               	bcf	242,1,c	;volatile
  1339   000D90                     
  1340                           ;basic.c: 56:     INTCON2bits.INTEDG0 = 0;
  1341   000D90  9CF1               	bcf	241,6,c	;volatile
  1342   000D92                     
  1343                           ;basic.c: 57:     INTCONbits.INT0IE = 1;
  1344   000D92  88F2               	bsf	242,4,c	;volatile
  1345   000D94                     
  1346                           ;basic.c: 60:     UART_Write_Text("0");
  1347   000D94  0E04               	movlw	low STR_2
  1348   000D96  0100               	movlb	0	; () banked
  1349   000D98  6FA8               	movwf	UART_Write_Text@text& (0+255),b
  1350   000D9A  51A8               	movf	UART_Write_Text@text& (0+255),w,b
  1351   000D9C  A4D8               	btfss	status,2,c
  1352   000D9E  0E06               	movlw	high __smallconst
  1353   000DA0  6FA9               	movwf	(UART_Write_Text@text+1)& (0+255),b
  1354   000DA2  ECCA  F005         	call	_UART_Write_Text	;wreg free
  1355   000DA6                     l180:
  1356   000DA6  EFD3  F006         	goto	l180
  1357   000DAA  EF36  F000         	goto	start
  1358   000DAE                     __end_of_main:
  1359                           	callstack 0
  1360                           
  1361 ;; *************** function _UART_Write_Text *****************
  1362 ;; Defined at:
  1363 ;;		line 49 in file "setting_hardaware/uart.c"
  1364 ;; Parameters:    Size  Location     Type
  1365 ;;  text            2    8[BANK0 ] PTR unsigned char 
  1366 ;;		 -> STR_2(2), Hi_ISR@str_buf(10), 
  1367 ;; Auto vars:     Size  Location     Type
  1368 ;;  i               2   12[BANK0 ] int 
  1369 ;; Return value:  Size  Location     Type
  1370 ;;                  1    wreg      void 
  1371 ;; Registers used:
  1372 ;;		wreg, fsr1l, fsr1h, status,2, status,0, tblptrl, tblptrh, tblptru, cstack
  1373 ;; Tracked objects:
  1374 ;;		On entry : 0/0
  1375 ;;		On exit  : 0/0
  1376 ;;		Unchanged: 0/0
  1377 ;; Data sizes:     COMRAM   BANK0   BANK1   BANK2   BANK3   BANK4   BANK5
  1378 ;;      Params:         0       2       0       0       0       0       0
  1379 ;;      Locals:         0       2       0       0       0       0       0
  1380 ;;      Temps:          0       2       0       0       0       0       0
  1381 ;;      Totals:         0       6       0       0       0       0       0
  1382 ;;Total ram usage:        6 bytes
  1383 ;; Hardware stack levels used: 1
  1384 ;; Hardware stack levels required when called: 10
  1385 ;; This function calls:
  1386 ;;		_UART_Write
  1387 ;; This function is called by:
  1388 ;;		_main
  1389 ;; This function uses a non-reentrant model
  1390 ;;
  1391                           
  1392                           	psect	text1
  1393   000B94                     __ptext1:
  1394                           	callstack 0
  1395   000B94                     _UART_Write_Text:
  1396                           	callstack 20
  1397   000B94                     
  1398                           ;setting_hardaware/uart.c: 50:     for(int i=0;text[i]!='\0';i++)
  1399   000B94  0E00               	movlw	0
  1400   000B96  0100               	movlb	0	; () banked
  1401   000B98  6FAD               	movwf	(UART_Write_Text@i+1)& (0+255),b
  1402   000B9A  0E00               	movlw	0
  1403   000B9C  6FAC               	movwf	UART_Write_Text@i& (0+255),b
  1404   000B9E  EFED  F005         	goto	l1538
  1405   000BA2                     l1534:
  1406                           
  1407                           ;setting_hardaware/uart.c: 51:         UART_Write(text[i]);
  1408   000BA2  0100               	movlb	0	; () banked
  1409   000BA4  51AC               	movf	UART_Write_Text@i& (0+255),w,b
  1410   000BA6  25A8               	addwf	UART_Write_Text@text& (0+255),w,b
  1411   000BA8  6FAA               	movwf	??_UART_Write_Text& (0+255),b
  1412   000BAA  51AD               	movf	(UART_Write_Text@i+1)& (0+255),w,b
  1413   000BAC  21A9               	addwfc	(UART_Write_Text@text+1)& (0+255),w,b
  1414   000BAE  6FAB               	movwf	(??_UART_Write_Text+1)& (0+255),b
  1415   000BB0  C0AA  FFF6         	movff	??_UART_Write_Text,tblptrl
  1416   000BB4  C0AB  FFF7         	movff	??_UART_Write_Text+1,tblptrh
  1417   000BB8  6AF8               	clrf	tblptru,c
  1418   000BBA  0E05               	movlw	(high __ramtop+-1)
  1419   000BBC  64F7               	cpfsgt	tblptrh,c
  1420   000BBE  D003               	bra	u837
  1421   000BC0  0008               	tblrd		*
  1422   000BC2  50F5               	movf	tablat,w,c
  1423   000BC4  D005               	bra	u830
  1424   000BC6                     u837:
  1425   000BC6  CFF6 FFE1          	movff	tblptrl,fsr1l
  1426   000BCA  CFF7 FFE2          	movff	tblptrh,fsr1h
  1427   000BCE  50E7               	movf	indf1,w,c
  1428   000BD0                     u830:
  1429   000BD0  ECFB  F006         	call	_UART_Write
  1430   000BD4  0100               	movlb	0	; () banked
  1431   000BD6  4BAC               	infsnz	UART_Write_Text@i& (0+255),f,b
  1432   000BD8  2BAD               	incf	(UART_Write_Text@i+1)& (0+255),f,b
  1433   000BDA                     l1538:
  1434                           
  1435                           ; BSR set to: 0
  1436   000BDA  51AC               	movf	UART_Write_Text@i& (0+255),w,b
  1437   000BDC  25A8               	addwf	UART_Write_Text@text& (0+255),w,b
  1438   000BDE  6FAA               	movwf	??_UART_Write_Text& (0+255),b
  1439   000BE0  51AD               	movf	(UART_Write_Text@i+1)& (0+255),w,b
  1440   000BE2  21A9               	addwfc	(UART_Write_Text@text+1)& (0+255),w,b
  1441   000BE4  6FAB               	movwf	(??_UART_Write_Text+1)& (0+255),b
  1442   000BE6  C0AA  FFF6         	movff	??_UART_Write_Text,tblptrl
  1443   000BEA  C0AB  FFF7         	movff	??_UART_Write_Text+1,tblptrh
  1444   000BEE  6AF8               	clrf	tblptru,c
  1445   000BF0  0E05               	movlw	(high __ramtop+-1)
  1446   000BF2  64F7               	cpfsgt	tblptrh,c
  1447   000BF4  D003               	bra	u847
  1448   000BF6  0008               	tblrd		*
  1449   000BF8  50F5               	movf	tablat,w,c
  1450   000BFA  D005               	bra	u840
  1451   000BFC                     u847:
  1452   000BFC  CFF6 FFE1          	movff	tblptrl,fsr1l
  1453   000C00  CFF7 FFE2          	movff	tblptrh,fsr1h
  1454   000C04  50E7               	movf	indf1,w,c
  1455   000C06                     u840:
  1456   000C06  0900               	iorlw	0
  1457   000C08  A4D8               	btfss	status,2,c
  1458   000C0A  EF09  F006         	goto	u851
  1459   000C0E  EF0B  F006         	goto	u850
  1460   000C12                     u851:
  1461   000C12  EFD1  F005         	goto	l1534
  1462   000C16                     u850:
  1463   000C16  0012               	return		;funcret
  1464   000C18                     __end_of_UART_Write_Text:
  1465                           	callstack 0
  1466                           
  1467 ;; *************** function _UART_Write *****************
  1468 ;; Defined at:
  1469 ;;		line 42 in file "setting_hardaware/uart.c"
  1470 ;; Parameters:    Size  Location     Type
  1471 ;;  data            1    wreg     unsigned char 
  1472 ;; Auto vars:     Size  Location     Type
  1473 ;;  data            1    7[BANK0 ] unsigned char 
  1474 ;; Return value:  Size  Location     Type
  1475 ;;                  1    wreg      void 
  1476 ;; Registers used:
  1477 ;;		wreg
  1478 ;; Tracked objects:
  1479 ;;		On entry : 0/0
  1480 ;;		On exit  : 0/0
  1481 ;;		Unchanged: 0/0
  1482 ;; Data sizes:     COMRAM   BANK0   BANK1   BANK2   BANK3   BANK4   BANK5
  1483 ;;      Params:         0       0       0       0       0       0       0
  1484 ;;      Locals:         0       1       0       0       0       0       0
  1485 ;;      Temps:          0       0       0       0       0       0       0
  1486 ;;      Totals:         0       1       0       0       0       0       0
  1487 ;;Total ram usage:        1 bytes
  1488 ;; Hardware stack levels used: 1
  1489 ;; Hardware stack levels required when called: 9
  1490 ;; This function calls:
  1491 ;;		Nothing
  1492 ;; This function is called by:
  1493 ;;		_UART_Write_Text
  1494 ;; This function uses a non-reentrant model
  1495 ;;
  1496                           
  1497                           	psect	text2
  1498   000DF6                     __ptext2:
  1499                           	callstack 0
  1500   000DF6                     _UART_Write:
  1501                           	callstack 20
  1502                           
  1503                           ;incstack = 0
  1504                           ;UART_Write@data stored from wreg
  1505   000DF6  0100               	movlb	0	; () banked
  1506   000DF8  6FA7               	movwf	UART_Write@data& (0+255),b
  1507   000DFA                     l58:
  1508   000DFA  A2AC               	btfss	172,1,c	;volatile
  1509   000DFC  EF02  F007         	goto	u791
  1510   000E00  EF04  F007         	goto	u790
  1511   000E04                     u791:
  1512   000E04  EFFD  F006         	goto	l58
  1513   000E08                     u790:
  1514   000E08                     
  1515                           ;setting_hardaware/uart.c: 45:     TXREG = data;
  1516   000E08  C0A7  FFAD         	movff	UART_Write@data,4013	;volatile
  1517   000E0C  0012               	return		;funcret
  1518   000E0E                     __end_of_UART_Write:
  1519                           	callstack 0
  1520                           
  1521 ;; *************** function _SYSTEM_Initialize *****************
  1522 ;; Defined at:
  1523 ;;		line 60 in file "setting_hardaware/setting.c"
  1524 ;; Parameters:    Size  Location     Type
  1525 ;;		None
  1526 ;; Auto vars:     Size  Location     Type
  1527 ;;		None
  1528 ;; Return value:  Size  Location     Type
  1529 ;;                  1    wreg      void 
  1530 ;; Registers used:
  1531 ;;		wreg, status,2, cstack
  1532 ;; Tracked objects:
  1533 ;;		On entry : 0/0
  1534 ;;		On exit  : 0/0
  1535 ;;		Unchanged: 0/0
  1536 ;; Data sizes:     COMRAM   BANK0   BANK1   BANK2   BANK3   BANK4   BANK5
  1537 ;;      Params:         0       0       0       0       0       0       0
  1538 ;;      Locals:         0       0       0       0       0       0       0
  1539 ;;      Temps:          0       0       0       0       0       0       0
  1540 ;;      Totals:         0       0       0       0       0       0       0
  1541 ;;Total ram usage:        0 bytes
  1542 ;; Hardware stack levels used: 1
  1543 ;; Hardware stack levels required when called: 10
  1544 ;; This function calls:
  1545 ;;		_ADC_Initialize
  1546 ;;		_CCP1_Initialize
  1547 ;;		_INTERRUPT_Initialize
  1548 ;;		_OSCILLATOR_Initialize
  1549 ;;		_UART_Initialize
  1550 ;; This function is called by:
  1551 ;;		_main
  1552 ;; This function uses a non-reentrant model
  1553 ;;
  1554                           
  1555                           	psect	text3
  1556   000E26                     __ptext3:
  1557                           	callstack 0
  1558   000E26                     _SYSTEM_Initialize:
  1559                           	callstack 20
  1560   000E26                     
  1561                           ;setting_hardaware/setting.c: 63:     OSCILLATOR_Initialize();
  1562   000E26  EC38  F007         	call	_OSCILLATOR_Initialize	;wreg free
  1563                           
  1564                           ;setting_hardaware/setting.c: 67:     INTERRUPT_Initialize();
  1565   000E2A  EC3C  F007         	call	_INTERRUPT_Initialize	;wreg free
  1566   000E2E                     
  1567                           ;setting_hardaware/setting.c: 68:     UART_Initialize();
  1568   000E2E  ECEA  F006         	call	_UART_Initialize	;wreg free
  1569   000E32                     
  1570                           ;setting_hardaware/setting.c: 69:     CCP1_Initialize();
  1571   000E32  EC32  F007         	call	_CCP1_Initialize	;wreg free
  1572   000E36                     
  1573                           ;setting_hardaware/setting.c: 70:     ADC_Initialize();
  1574   000E36  EC29  F007         	call	_ADC_Initialize	;wreg free
  1575   000E3A  0012               	return		;funcret
  1576   000E3C                     __end_of_SYSTEM_Initialize:
  1577                           	callstack 0
  1578                           
  1579 ;; *************** function _UART_Initialize *****************
  1580 ;; Defined at:
  1581 ;;		line 7 in file "setting_hardaware/uart.c"
  1582 ;; Parameters:    Size  Location     Type
  1583 ;;		None
  1584 ;; Auto vars:     Size  Location     Type
  1585 ;;		None
  1586 ;; Return value:  Size  Location     Type
  1587 ;;                  1    wreg      void 
  1588 ;; Registers used:
  1589 ;;		wreg, status,2
  1590 ;; Tracked objects:
  1591 ;;		On entry : 0/0
  1592 ;;		On exit  : 0/0
  1593 ;;		Unchanged: 0/0
  1594 ;; Data sizes:     COMRAM   BANK0   BANK1   BANK2   BANK3   BANK4   BANK5
  1595 ;;      Params:         0       0       0       0       0       0       0
  1596 ;;      Locals:         0       0       0       0       0       0       0
  1597 ;;      Temps:          0       0       0       0       0       0       0
  1598 ;;      Totals:         0       0       0       0       0       0       0
  1599 ;;Total ram usage:        0 bytes
  1600 ;; Hardware stack levels used: 1
  1601 ;; Hardware stack levels required when called: 9
  1602 ;; This function calls:
  1603 ;;		Nothing
  1604 ;; This function is called by:
  1605 ;;		_SYSTEM_Initialize
  1606 ;; This function uses a non-reentrant model
  1607 ;;
  1608                           
  1609                           	psect	text4
  1610   000DD4                     __ptext4:
  1611                           	callstack 0
  1612   000DD4                     _UART_Initialize:
  1613                           	callstack 20
  1614   000DD4                     
  1615                           ;setting_hardaware/uart.c: 18:     TRISCbits.TRISC6 = 0;
  1616   000DD4  9C94               	bcf	148,6,c	;volatile
  1617                           
  1618                           ;setting_hardaware/uart.c: 19:     TRISCbits.TRISC7 = 1;
  1619   000DD6  8E94               	bsf	148,7,c	;volatile
  1620                           
  1621                           ;setting_hardaware/uart.c: 25:     TXSTAbits.SYNC = 0;
  1622   000DD8  98AC               	bcf	172,4,c	;volatile
  1623                           
  1624                           ;setting_hardaware/uart.c: 26:     BAUDCONbits.BRG16 = 0;
  1625   000DDA  96B8               	bcf	184,3,c	;volatile
  1626                           
  1627                           ;setting_hardaware/uart.c: 27:     TXSTAbits.BRGH = 1;
  1628   000DDC  84AC               	bsf	172,2,c	;volatile
  1629   000DDE                     
  1630                           ;setting_hardaware/uart.c: 28:     SPBRG = 25;
  1631   000DDE  0E19               	movlw	25
  1632   000DE0  6EAF               	movwf	175,c	;volatile
  1633   000DE2                     
  1634                           ;setting_hardaware/uart.c: 31:     RCSTAbits.SPEN = 1;
  1635   000DE2  8EAB               	bsf	171,7,c	;volatile
  1636   000DE4                     
  1637                           ;setting_hardaware/uart.c: 32:     PIR1bits.TXIF = 0;
  1638   000DE4  989E               	bcf	158,4,c	;volatile
  1639   000DE6                     
  1640                           ;setting_hardaware/uart.c: 33:     PIR1bits.RCIF = 0;
  1641   000DE6  9A9E               	bcf	158,5,c	;volatile
  1642   000DE8                     
  1643                           ;setting_hardaware/uart.c: 34:     TXSTAbits.TXEN = 1;
  1644   000DE8  8AAC               	bsf	172,5,c	;volatile
  1645   000DEA                     
  1646                           ;setting_hardaware/uart.c: 35:     RCSTAbits.CREN = 1;
  1647   000DEA  88AB               	bsf	171,4,c	;volatile
  1648   000DEC                     
  1649                           ;setting_hardaware/uart.c: 36:     PIE1bits.TXIE = 0;
  1650   000DEC  989D               	bcf	157,4,c	;volatile
  1651   000DEE                     
  1652                           ;setting_hardaware/uart.c: 37:     IPR1bits.TXIP = 0;
  1653   000DEE  989F               	bcf	159,4,c	;volatile
  1654   000DF0                     
  1655                           ;setting_hardaware/uart.c: 38:     PIE1bits.RCIE = 1;
  1656   000DF0  8A9D               	bsf	157,5,c	;volatile
  1657   000DF2                     
  1658                           ;setting_hardaware/uart.c: 39:     IPR1bits.RCIP = 0;
  1659   000DF2  9A9F               	bcf	159,5,c	;volatile
  1660   000DF4  0012               	return		;funcret
  1661   000DF6                     __end_of_UART_Initialize:
  1662                           	callstack 0
  1663                           
  1664 ;; *************** function _OSCILLATOR_Initialize *****************
  1665 ;; Defined at:
  1666 ;;		line 73 in file "setting_hardaware/setting.c"
  1667 ;; Parameters:    Size  Location     Type
  1668 ;;		None
  1669 ;; Auto vars:     Size  Location     Type
  1670 ;;		None
  1671 ;; Return value:  Size  Location     Type
  1672 ;;                  1    wreg      void 
  1673 ;; Registers used:
  1674 ;;		None
  1675 ;; Tracked objects:
  1676 ;;		On entry : 0/0
  1677 ;;		On exit  : 0/0
  1678 ;;		Unchanged: 0/0
  1679 ;; Data sizes:     COMRAM   BANK0   BANK1   BANK2   BANK3   BANK4   BANK5
  1680 ;;      Params:         0       0       0       0       0       0       0
  1681 ;;      Locals:         0       0       0       0       0       0       0
  1682 ;;      Temps:          0       0       0       0       0       0       0
  1683 ;;      Totals:         0       0       0       0       0       0       0
  1684 ;;Total ram usage:        0 bytes
  1685 ;; Hardware stack levels used: 1
  1686 ;; Hardware stack levels required when called: 9
  1687 ;; This function calls:
  1688 ;;		Nothing
  1689 ;; This function is called by:
  1690 ;;		_SYSTEM_Initialize
  1691 ;; This function uses a non-reentrant model
  1692 ;;
  1693                           
  1694                           	psect	text5
  1695   000E70                     __ptext5:
  1696                           	callstack 0
  1697   000E70                     _OSCILLATOR_Initialize:
  1698                           	callstack 20
  1699   000E70                     
  1700                           ;setting_hardaware/setting.c: 75:     IRCF2 = 1;
  1701   000E70  8CD3               	bsf	4051,6,c	;volatile
  1702                           
  1703                           ;setting_hardaware/setting.c: 76:     IRCF1 = 1;
  1704   000E72  8AD3               	bsf	4051,5,c	;volatile
  1705                           
  1706                           ;setting_hardaware/setting.c: 77:     IRCF0 = 0;
  1707   000E74  98D3               	bcf	4051,4,c	;volatile
  1708   000E76  0012               	return		;funcret
  1709   000E78                     __end_of_OSCILLATOR_Initialize:
  1710                           	callstack 0
  1711                           
  1712 ;; *************** function _INTERRUPT_Initialize *****************
  1713 ;; Defined at:
  1714 ;;		line 3 in file "setting_hardaware/interrupt_manager.c"
  1715 ;; Parameters:    Size  Location     Type
  1716 ;;		None
  1717 ;; Auto vars:     Size  Location     Type
  1718 ;;		None
  1719 ;; Return value:  Size  Location     Type
  1720 ;;                  1    wreg      void 
  1721 ;; Registers used:
  1722 ;;		None
  1723 ;; Tracked objects:
  1724 ;;		On entry : 0/0
  1725 ;;		On exit  : 0/0
  1726 ;;		Unchanged: 0/0
  1727 ;; Data sizes:     COMRAM   BANK0   BANK1   BANK2   BANK3   BANK4   BANK5
  1728 ;;      Params:         0       0       0       0       0       0       0
  1729 ;;      Locals:         0       0       0       0       0       0       0
  1730 ;;      Temps:          0       0       0       0       0       0       0
  1731 ;;      Totals:         0       0       0       0       0       0       0
  1732 ;;Total ram usage:        0 bytes
  1733 ;; Hardware stack levels used: 1
  1734 ;; Hardware stack levels required when called: 9
  1735 ;; This function calls:
  1736 ;;		Nothing
  1737 ;; This function is called by:
  1738 ;;		_SYSTEM_Initialize
  1739 ;; This function uses a non-reentrant model
  1740 ;;
  1741                           
  1742                           	psect	text6
  1743   000E78                     __ptext6:
  1744                           	callstack 0
  1745   000E78                     _INTERRUPT_Initialize:
  1746                           	callstack 20
  1747   000E78                     
  1748                           ;setting_hardaware/interrupt_manager.c: 5:     RCONbits.IPEN = 1;
  1749   000E78  8ED0               	bsf	208,7,c	;volatile
  1750                           
  1751                           ;setting_hardaware/interrupt_manager.c: 6:     INTCONbits.GIEH = 1;
  1752   000E7A  8EF2               	bsf	242,7,c	;volatile
  1753                           
  1754                           ;setting_hardaware/interrupt_manager.c: 7:     INTCONbits.GIEL = 1;
  1755   000E7C  8CF2               	bsf	242,6,c	;volatile
  1756   000E7E  0012               	return		;funcret
  1757   000E80                     __end_of_INTERRUPT_Initialize:
  1758                           	callstack 0
  1759                           
  1760 ;; *************** function _CCP1_Initialize *****************
  1761 ;; Defined at:
  1762 ;;		line 3 in file "setting_hardaware/ccp1.c"
  1763 ;; Parameters:    Size  Location     Type
  1764 ;;		None
  1765 ;; Auto vars:     Size  Location     Type
  1766 ;;		None
  1767 ;; Return value:  Size  Location     Type
  1768 ;;                  1    wreg      void 
  1769 ;; Registers used:
  1770 ;;		wreg, status,2
  1771 ;; Tracked objects:
  1772 ;;		On entry : 0/0
  1773 ;;		On exit  : 0/0
  1774 ;;		Unchanged: 0/0
  1775 ;; Data sizes:     COMRAM   BANK0   BANK1   BANK2   BANK3   BANK4   BANK5
  1776 ;;      Params:         0       0       0       0       0       0       0
  1777 ;;      Locals:         0       0       0       0       0       0       0
  1778 ;;      Temps:          0       0       0       0       0       0       0
  1779 ;;      Totals:         0       0       0       0       0       0       0
  1780 ;;Total ram usage:        0 bytes
  1781 ;; Hardware stack levels used: 1
  1782 ;; Hardware stack levels required when called: 9
  1783 ;; This function calls:
  1784 ;;		Nothing
  1785 ;; This function is called by:
  1786 ;;		_SYSTEM_Initialize
  1787 ;; This function uses a non-reentrant model
  1788 ;;
  1789                           
  1790                           	psect	text7
  1791   000E64                     __ptext7:
  1792                           	callstack 0
  1793   000E64                     _CCP1_Initialize:
  1794                           	callstack 20
  1795   000E64                     
  1796                           ;setting_hardaware/ccp1.c: 4:     TRISCbits.TRISC2=0;
  1797   000E64  9494               	bcf	148,2,c	;volatile
  1798   000E66                     
  1799                           ;setting_hardaware/ccp1.c: 5:     CCP1CON=9;
  1800   000E66  0E09               	movlw	9
  1801   000E68  6EBD               	movwf	189,c	;volatile
  1802   000E6A                     
  1803                           ;setting_hardaware/ccp1.c: 6:     PIR1bits.CCP1IF=0;
  1804   000E6A  949E               	bcf	158,2,c	;volatile
  1805   000E6C                     
  1806                           ;setting_hardaware/ccp1.c: 7:     IPR1bits.CCP1IP = 1;
  1807   000E6C  849F               	bsf	159,2,c	;volatile
  1808   000E6E  0012               	return		;funcret
  1809   000E70                     __end_of_CCP1_Initialize:
  1810                           	callstack 0
  1811                           
  1812 ;; *************** function _ADC_Initialize *****************
  1813 ;; Defined at:
  1814 ;;		line 3 in file "setting_hardaware/adc.c"
  1815 ;; Parameters:    Size  Location     Type
  1816 ;;		None
  1817 ;; Auto vars:     Size  Location     Type
  1818 ;;		None
  1819 ;; Return value:  Size  Location     Type
  1820 ;;                  1    wreg      void 
  1821 ;; Registers used:
  1822 ;;		wreg, status,2
  1823 ;; Tracked objects:
  1824 ;;		On entry : 0/0
  1825 ;;		On exit  : 0/0
  1826 ;;		Unchanged: 0/0
  1827 ;; Data sizes:     COMRAM   BANK0   BANK1   BANK2   BANK3   BANK4   BANK5
  1828 ;;      Params:         0       0       0       0       0       0       0
  1829 ;;      Locals:         0       0       0       0       0       0       0
  1830 ;;      Temps:          0       0       0       0       0       0       0
  1831 ;;      Totals:         0       0       0       0       0       0       0
  1832 ;;Total ram usage:        0 bytes
  1833 ;; Hardware stack levels used: 1
  1834 ;; Hardware stack levels required when called: 9
  1835 ;; This function calls:
  1836 ;;		Nothing
  1837 ;; This function is called by:
  1838 ;;		_SYSTEM_Initialize
  1839 ;; This function uses a non-reentrant model
  1840 ;;
  1841                           
  1842                           	psect	text8
  1843   000E52                     __ptext8:
  1844                           	callstack 0
  1845   000E52                     _ADC_Initialize:
  1846                           	callstack 20
  1847   000E52                     
  1848                           ;setting_hardaware/adc.c: 4:     TRISA = 0xff;
  1849   000E52  6892               	setf	146,c	;volatile
  1850   000E54                     
  1851                           ;setting_hardaware/adc.c: 5:     ADCON1 = 0x0e;
  1852   000E54  0E0E               	movlw	14
  1853   000E56  6EC1               	movwf	193,c	;volatile
  1854   000E58                     
  1855                           ;setting_hardaware/adc.c: 7:     ADFM = 1 ;
  1856   000E58  8EC0               	bsf	4032,7,c	;volatile
  1857                           
  1858                           ;setting_hardaware/adc.c: 8:     ADCON2bits.ADCS = 7;
  1859   000E5A  0E07               	movlw	7
  1860   000E5C  12C0               	iorwf	192,f,c	;volatile
  1861   000E5E                     
  1862                           ;setting_hardaware/adc.c: 9:     ADRESH=0;
  1863   000E5E  6AC4               	clrf	196,c	;volatile
  1864   000E60                     
  1865                           ;setting_hardaware/adc.c: 10:     ADRESL=0;
  1866   000E60  6AC3               	clrf	195,c	;volatile
  1867   000E62  0012               	return		;funcret
  1868   000E64                     __end_of_ADC_Initialize:
  1869                           	callstack 0
  1870                           
  1871 ;; *************** function _Lo_ISR *****************
  1872 ;; Defined at:
  1873 ;;		line 84 in file "setting_hardaware/uart.c"
  1874 ;; Parameters:    Size  Location     Type
  1875 ;;		None
  1876 ;; Auto vars:     Size  Location     Type
  1877 ;;		None
  1878 ;; Return value:  Size  Location     Type
  1879 ;;                  1    wreg      void 
  1880 ;; Registers used:
  1881 ;;		wreg, fsr2l, fsr2h, status,2, status,0, cstack
  1882 ;; Tracked objects:
  1883 ;;		On entry : 0/0
  1884 ;;		On exit  : 0/0
  1885 ;;		Unchanged: 0/0
  1886 ;; Data sizes:     COMRAM   BANK0   BANK1   BANK2   BANK3   BANK4   BANK5
  1887 ;;      Params:         0       0       0       0       0       0       0
  1888 ;;      Locals:         0       0       0       0       0       0       0
  1889 ;;      Temps:          0       5       0       0       0       0       0
  1890 ;;      Totals:         0       5       0       0       0       0       0
  1891 ;;Total ram usage:        5 bytes
  1892 ;; Hardware stack levels used: 1
  1893 ;; Hardware stack levels required when called: 8
  1894 ;; This function calls:
  1895 ;;		_MyusartRead
  1896 ;; This function is called by:
  1897 ;;		Interrupt level 1
  1898 ;; This function uses a non-reentrant model
  1899 ;;
  1900                           
  1901                           	psect	intcodelo
  1902   000018                     __pintcodelo:
  1903                           	callstack 0
  1904   000018                     _Lo_ISR:
  1905                           	callstack 20
  1906                           
  1907                           ;incstack = 0
  1908   000018  8066               	bsf	int$flags,0,c	;set compiler interrupt flag (level 1)
  1909   00001A  CFD8 F0A2          	movff	status,??_Lo_ISR
  1910   00001E  CFE8 F0A3          	movff	wreg,??_Lo_ISR+1
  1911   000022  CFE0 F0A4          	movff	bsr,??_Lo_ISR+2
  1912   000026  CFD9 F0A5          	movff	fsr2l,??_Lo_ISR+3
  1913   00002A  CFDA F0A6          	movff	fsr2h,??_Lo_ISR+4
  1914   00002E                     
  1915                           ;setting_hardaware/uart.c: 86:     if(RCIF)
  1916   00002E  AA9E               	btfss	3998,5,c	;volatile
  1917   000030  EF1C  F000         	goto	i1u90_21
  1918   000034  EF1E  F000         	goto	i1u90_20
  1919   000038                     i1u90_21:
  1920   000038  EF2A  F000         	goto	i1l86
  1921   00003C                     i1u90_20:
  1922   00003C                     
  1923                           ;setting_hardaware/uart.c: 87:     {;setting_hardaware/uart.c: 88:         if(RCSTAbits.
      +                          OERR)
  1924   00003C  A2AB               	btfss	171,1,c	;volatile
  1925   00003E  EF23  F000         	goto	i1u91_21
  1926   000042  EF25  F000         	goto	i1u91_20
  1927   000046                     i1u91_21:
  1928   000046  EF28  F000         	goto	i1l1580
  1929   00004A                     i1u91_20:
  1930   00004A                     
  1931                           ;setting_hardaware/uart.c: 89:         {;setting_hardaware/uart.c: 90:             CREN 
      +                          = 0;
  1932   00004A  98AB               	bcf	4011,4,c	;volatile
  1933                           
  1934                           ;setting_hardaware/uart.c: 91:             __nop();
  1935   00004C  0000               	nop	
  1936                           
  1937                           ;setting_hardaware/uart.c: 92:             CREN = 1;
  1938   00004E  88AB               	bsf	4011,4,c	;volatile
  1939   000050                     i1l1580:
  1940                           
  1941                           ;setting_hardaware/uart.c: 95:         MyusartRead();
  1942   000050  EC4B  F006         	call	_MyusartRead	;wreg free
  1943   000054                     i1l86:
  1944   000054  C0A6  FFDA         	movff	??_Lo_ISR+4,fsr2h
  1945   000058  C0A5  FFD9         	movff	??_Lo_ISR+3,fsr2l
  1946   00005C  C0A4  FFE0         	movff	??_Lo_ISR+2,bsr
  1947   000060  C0A3  FFE8         	movff	??_Lo_ISR+1,wreg
  1948   000064  C0A2  FFD8         	movff	??_Lo_ISR,status
  1949   000068  9066               	bcf	int$flags,0,c	;clear compiler interrupt flag (level 1)
  1950   00006A  0010               	retfie	
  1951   00006C                     __end_of_Lo_ISR:
  1952                           	callstack 0
  1953                           
  1954 ;; *************** function _MyusartRead *****************
  1955 ;; Defined at:
  1956 ;;		line 60 in file "setting_hardaware/uart.c"
  1957 ;; Parameters:    Size  Location     Type
  1958 ;;		None
  1959 ;; Auto vars:     Size  Location     Type
  1960 ;;  data            1    1[BANK0 ] unsigned char 
  1961 ;; Return value:  Size  Location     Type
  1962 ;;                  1    wreg      void 
  1963 ;; Registers used:
  1964 ;;		wreg, fsr2l, fsr2h, status,2, status,0, cstack
  1965 ;; Tracked objects:
  1966 ;;		On entry : 0/0
  1967 ;;		On exit  : 0/0
  1968 ;;		Unchanged: 0/0
  1969 ;; Data sizes:     COMRAM   BANK0   BANK1   BANK2   BANK3   BANK4   BANK5
  1970 ;;      Params:         0       0       0       0       0       0       0
  1971 ;;      Locals:         0       1       0       0       0       0       0
  1972 ;;      Temps:          0       0       0       0       0       0       0
  1973 ;;      Totals:         0       1       0       0       0       0       0
  1974 ;;Total ram usage:        1 bytes
  1975 ;; Hardware stack levels used: 1
  1976 ;; Hardware stack levels required when called: 7
  1977 ;; This function calls:
  1978 ;;		i1_UART_Write
  1979 ;; This function is called by:
  1980 ;;		_Lo_ISR
  1981 ;; This function uses a non-reentrant model
  1982 ;;
  1983                           
  1984                           	psect	text10
  1985   000C96                     __ptext10:
  1986                           	callstack 0
  1987   000C96                     _MyusartRead:
  1988                           	callstack 20
  1989   000C96                     
  1990                           ;setting_hardaware/uart.c: 63:     char data = RCREG;
  1991   000C96  CFAE F0A1          	movff	4014,MyusartRead@data	;volatile
  1992   000C9A                     
  1993                           ;setting_hardaware/uart.c: 66:     if(lenStr < 19) {
  1994   000C9A  BE50               	btfsc	(_lenStr+1)^0,7,c
  1995   000C9C  EF5B  F006         	goto	i1u86_20
  1996   000CA0  5050               	movf	(_lenStr+1)^0,w,c
  1997   000CA2  E107               	bnz	i1u86_21
  1998   000CA4  0E13               	movlw	19
  1999   000CA6  5C4F               	subwf	_lenStr^0,w,c
  2000   000CA8  B0D8               	btfsc	status,0,c
  2001   000CAA  EF59  F006         	goto	i1u86_21
  2002   000CAE  EF5B  F006         	goto	i1u86_20
  2003   000CB2                     i1u86_21:
  2004   000CB2  EF68  F006         	goto	i1l1550
  2005   000CB6                     i1u86_20:
  2006   000CB6                     
  2007                           ;setting_hardaware/uart.c: 67:         mystring[lenStr] = data;
  2008   000CB6  504F               	movf	_lenStr^0,w,c
  2009   000CB8  0F52               	addlw	low _mystring
  2010   000CBA  6ED9               	movwf	fsr2l,c
  2011   000CBC  6ADA               	clrf	fsr2h,c
  2012   000CBE  C0A1  FFDF         	movff	MyusartRead@data,indf2
  2013   000CC2                     
  2014                           ;setting_hardaware/uart.c: 68:         lenStr++;
  2015   000CC2  4A4F               	infsnz	_lenStr^0,f,c
  2016   000CC4  2A50               	incf	(_lenStr+1)^0,f,c
  2017   000CC6                     
  2018                           ;setting_hardaware/uart.c: 69:         mystring[lenStr] = '\0';
  2019   000CC6  504F               	movf	_lenStr^0,w,c
  2020   000CC8  0F52               	addlw	low _mystring
  2021   000CCA  6ED9               	movwf	fsr2l,c
  2022   000CCC  6ADA               	clrf	fsr2h,c
  2023   000CCE  6ADF               	clrf	indf2,c
  2024   000CD0                     i1l1550:
  2025                           
  2026                           ;setting_hardaware/uart.c: 73:     UART_Write(data);
  2027   000CD0  0100               	movlb	0	; () banked
  2028   000CD2  51A1               	movf	MyusartRead@data& (0+255),w,b
  2029   000CD4  EC07  F007         	call	i1_UART_Write
  2030   000CD8  0012               	return		;funcret
  2031   000CDA                     __end_of_MyusartRead:
  2032                           	callstack 0
  2033                           
  2034 ;; *************** function i1_UART_Write *****************
  2035 ;; Defined at:
  2036 ;;		line 42 in file "setting_hardaware/uart.c"
  2037 ;; Parameters:    Size  Location     Type
  2038 ;;  data            1    wreg     unsigned char 
  2039 ;; Auto vars:     Size  Location     Type
  2040 ;;  data            1    0[BANK0 ] unsigned char 
  2041 ;; Return value:  Size  Location     Type
  2042 ;;                  1    wreg      void 
  2043 ;; Registers used:
  2044 ;;		wreg
  2045 ;; Tracked objects:
  2046 ;;		On entry : 0/0
  2047 ;;		On exit  : 0/0
  2048 ;;		Unchanged: 0/0
  2049 ;; Data sizes:     COMRAM   BANK0   BANK1   BANK2   BANK3   BANK4   BANK5
  2050 ;;      Params:         0       0       0       0       0       0       0
  2051 ;;      Locals:         0       1       0       0       0       0       0
  2052 ;;      Temps:          0       0       0       0       0       0       0
  2053 ;;      Totals:         0       1       0       0       0       0       0
  2054 ;;Total ram usage:        1 bytes
  2055 ;; Hardware stack levels used: 1
  2056 ;; Hardware stack levels required when called: 6
  2057 ;; This function calls:
  2058 ;;		Nothing
  2059 ;; This function is called by:
  2060 ;;		_MyusartRead
  2061 ;; This function uses a non-reentrant model
  2062 ;;
  2063                           
  2064                           	psect	text11
  2065   000E0E                     __ptext11:
  2066                           	callstack 0
  2067   000E0E                     i1_UART_Write:
  2068                           	callstack 20
  2069                           
  2070                           ;incstack = 0
  2071                           ;i1UART_Write@data stored from wreg
  2072   000E0E  0100               	movlb	0	; () banked
  2073   000E10  6FA0               	movwf	i1UART_Write@data& (0+255),b
  2074   000E12                     i1l58:
  2075   000E12  A2AC               	btfss	172,1,c	;volatile
  2076   000E14  EF0E  F007         	goto	i1u81_21
  2077   000E18  EF10  F007         	goto	i1u81_20
  2078   000E1C                     i1u81_21:
  2079   000E1C  EF09  F007         	goto	i1l58
  2080   000E20                     i1u81_20:
  2081   000E20                     
  2082                           ;setting_hardaware/uart.c: 45:     TXREG = data;
  2083   000E20  C0A0  FFAD         	movff	i1UART_Write@data,4013	;volatile
  2084   000E24  0012               	return		;funcret
  2085   000E26                     __end_ofi1_UART_Write:
  2086                           	callstack 0
  2087                           
  2088 ;; *************** function _Hi_ISR *****************
  2089 ;; Defined at:
  2090 ;;		line 9 in file "basic.c"
  2091 ;; Parameters:    Size  Location     Type
  2092 ;;		None
  2093 ;; Auto vars:     Size  Location     Type
  2094 ;;  i               2   66[COMRAM] int 
  2095 ;;  i               2   64[COMRAM] int 
  2096 ;;  i               2   62[COMRAM] int 
  2097 ;;  str_buf        10   50[COMRAM] unsigned char [10]
  2098 ;;  digits          2   70[COMRAM] int 
  2099 ;;  old_val         2   60[COMRAM] unsigned int 
  2100 ;;  i               2   68[COMRAM] int 
  2101 ;; Return value:  Size  Location     Type
  2102 ;;                  1    wreg      void 
  2103 ;; Registers used:
  2104 ;;		wreg, fsr1l, fsr1h, fsr2l, fsr2h, status,2, status,0, tblptrl, tblptrh, tblptru, cstack
  2105 ;; Tracked objects:
  2106 ;;		On entry : 0/0
  2107 ;;		On exit  : 0/0
  2108 ;;		Unchanged: 0/0
  2109 ;; Data sizes:     COMRAM   BANK0   BANK1   BANK2   BANK3   BANK4   BANK5
  2110 ;;      Params:         0       0       0       0       0       0       0
  2111 ;;      Locals:        22       0       0       0       0       0       0
  2112 ;;      Temps:          9       0       0       0       0       0       0
  2113 ;;      Totals:        31       0       0       0       0       0       0
  2114 ;;Total ram usage:       31 bytes
  2115 ;; Hardware stack levels used: 1
  2116 ;; Hardware stack levels required when called: 5
  2117 ;; This function calls:
  2118 ;;		_sprintf
  2119 ;;		i2_UART_Write
  2120 ;;		i2_UART_Write_Text
  2121 ;; This function is called by:
  2122 ;;		Interrupt level 2
  2123 ;; This function uses a non-reentrant model
  2124 ;;
  2125                           
  2126                           	psect	intcode
  2127   000008                     __pintcode:
  2128                           	callstack 0
  2129   000008                     _Hi_ISR:
  2130                           	callstack 20
  2131                           
  2132                           ;incstack = 0
  2133   000008  8266               	bsf	int$flags,1,c	;set compiler interrupt flag (level 2)
  2134   00000A  ED04  F003         	call	int_func,f	;refresh shadow registers
  2135                           
  2136                           	psect	intcode_body
  2137   000608                     __pintcode_body:
  2138                           	callstack 20
  2139   000608                     int_func:
  2140                           	callstack 20
  2141   000608  0006               	pop		; remove dummy address from shadow register refresh
  2142   00060A  CFE1 F02B          	movff	fsr1l,??_Hi_ISR+1
  2143   00060E  CFE2 F02C          	movff	fsr1h,??_Hi_ISR+2
  2144   000612  CFD9 F02D          	movff	fsr2l,??_Hi_ISR+3
  2145   000616  CFDA F02E          	movff	fsr2h,??_Hi_ISR+4
  2146   00061A  CFF6 F02F          	movff	tblptrl,??_Hi_ISR+5
  2147   00061E  CFF7 F030          	movff	tblptrh,??_Hi_ISR+6
  2148   000622  CFF8 F031          	movff	tblptru,??_Hi_ISR+7
  2149   000626  CFF5 F032          	movff	tablat,??_Hi_ISR+8
  2150   00062A                     
  2151                           ;basic.c: 12:     if(INTCONbits.INT0IF)
  2152   00062A  A2F2               	btfss	242,1,c	;volatile
  2153   00062C  EF1A  F003         	goto	i2u92_41
  2154   000630  EF1C  F003         	goto	i2u92_40
  2155   000634                     i2u92_41:
  2156   000634  EFCF  F003         	goto	i2l175
  2157   000638                     i2u92_40:
  2158   000638                     
  2159                           ;basic.c: 13:     {;basic.c: 15:         for(int i=0; i<3000; i++);
  2160   000638  0E00               	movlw	0
  2161   00063A  6E46               	movwf	(Hi_ISR@i+1)^0,c
  2162   00063C  0E00               	movlw	0
  2163   00063E  6E45               	movwf	Hi_ISR@i^0,c
  2164   000640                     i2l1592:
  2165   000640  4A45               	infsnz	Hi_ISR@i^0,f,c
  2166   000642  2A46               	incf	(Hi_ISR@i+1)^0,f,c
  2167   000644  BE46               	btfsc	(Hi_ISR@i+1)^0,7,c
  2168   000646  EF2E  F003         	goto	i2u93_41
  2169   00064A  0EB8               	movlw	184
  2170   00064C  5C45               	subwf	Hi_ISR@i^0,w,c
  2171   00064E  0E0B               	movlw	11
  2172   000650  5846               	subwfb	(Hi_ISR@i+1)^0,w,c
  2173   000652  A0D8               	btfss	status,0,c
  2174   000654  EF2E  F003         	goto	i2u93_41
  2175   000658  EF30  F003         	goto	i2u93_40
  2176   00065C                     i2u93_41:
  2177   00065C  EF20  F003         	goto	i2l1592
  2178   000660                     i2u93_40:
  2179   000660                     
  2180                           ;basic.c: 18:         if(PORTBbits.RB0 == 0)
  2181   000660  B081               	btfsc	129,0,c	;volatile
  2182   000662  EF35  F003         	goto	i2u94_41
  2183   000666  EF37  F003         	goto	i2u94_40
  2184   00066A                     i2u94_41:
  2185   00066A  EFCE  F003         	goto	i2l157
  2186   00066E                     i2u94_40:
  2187   00066E                     
  2188                           ;basic.c: 19:         {;basic.c: 20:             unsigned int old_val = counter;
  2189   00066E  C04D  F03D         	movff	_counter,Hi_ISR@old_val	;volatile
  2190   000672  C04E  F03E         	movff	_counter+1,Hi_ISR@old_val+1	;volatile
  2191   000676                     
  2192                           ;basic.c: 21:             counter++;
  2193   000676  4A4D               	infsnz	_counter^0,f,c	;volatile
  2194   000678  2A4E               	incf	(_counter+1)^0,f,c	;volatile
  2195   00067A                     
  2196                           ;basic.c: 22:             if(counter > 15) counter = 0;
  2197   00067A  504E               	movf	(_counter+1)^0,w,c	;volatile
  2198   00067C  E109               	bnz	i2u95_40
  2199   00067E  0E10               	movlw	16
  2200   000680  5C4D               	subwf	_counter^0,w,c	;volatile
  2201   000682  A0D8               	btfss	status,0,c
  2202   000684  EF46  F003         	goto	i2u95_41
  2203   000688  EF48  F003         	goto	i2u95_40
  2204   00068C                     i2u95_41:
  2205   00068C  EF4C  F003         	goto	i2l1604
  2206   000690                     i2u95_40:
  2207   000690  0E00               	movlw	0
  2208   000692  6E4E               	movwf	(_counter+1)^0,c	;volatile
  2209   000694  0E00               	movlw	0
  2210   000696  6E4D               	movwf	_counter^0,c	;volatile
  2211   000698                     i2l1604:
  2212                           
  2213                           ;basic.c: 25:             LATD = (LATD & 0x0F) | (counter << 4);
  2214   000698  C04D  F02A         	movff	_counter,??_Hi_ISR	;volatile
  2215   00069C  3A2A               	swapf	??_Hi_ISR^0,f,c
  2216   00069E  0EF0               	movlw	240
  2217   0006A0  162A               	andwf	??_Hi_ISR^0,f,c
  2218   0006A2  508C               	movf	140,w,c	;volatile
  2219   0006A4  0B0F               	andlw	15
  2220   0006A6  102A               	iorwf	??_Hi_ISR^0,w,c
  2221   0006A8  6E8C               	movwf	140,c	;volatile
  2222   0006AA                     
  2223                           ;basic.c: 28:             int digits = (old_val >= 10) ? 2 : 1;
  2224   0006AA  503E               	movf	(Hi_ISR@old_val+1)^0,w,c
  2225   0006AC  E107               	bnz	i2u96_41
  2226   0006AE  0E0A               	movlw	10
  2227   0006B0  5C3D               	subwf	Hi_ISR@old_val^0,w,c
  2228   0006B2  B0D8               	btfsc	status,0,c
  2229   0006B4  EF5E  F003         	goto	i2u96_41
  2230   0006B8  EF60  F003         	goto	i2u96_40
  2231   0006BC                     i2u96_41:
  2232   0006BC  EF66  F003         	goto	i2l1610
  2233   0006C0                     i2u96_40:
  2234   0006C0  0E00               	movlw	0
  2235   0006C2  6E48               	movwf	(Hi_ISR@digits+1)^0,c
  2236   0006C4  0E01               	movlw	1
  2237   0006C6  6E47               	movwf	Hi_ISR@digits^0,c
  2238   0006C8  EF6A  F003         	goto	i2l162
  2239   0006CC                     i2l1610:
  2240   0006CC  0E00               	movlw	0
  2241   0006CE  6E48               	movwf	(Hi_ISR@digits+1)^0,c
  2242   0006D0  0E02               	movlw	2
  2243   0006D2  6E47               	movwf	Hi_ISR@digits^0,c
  2244   0006D4                     i2l162:
  2245                           
  2246                           ;basic.c: 29:             for(int i=0; i<digits; i++) UART_Write('\b');
  2247   0006D4  0E00               	movlw	0
  2248   0006D6  6E40               	movwf	(Hi_ISR@i_932+1)^0,c
  2249   0006D8  0E00               	movlw	0
  2250   0006DA  6E3F               	movwf	Hi_ISR@i_932^0,c
  2251   0006DC  EF75  F003         	goto	i2l1616
  2252   0006E0                     i2l1612:
  2253   0006E0  0E08               	movlw	8
  2254   0006E2  EC1E  F007         	call	i2_UART_Write
  2255   0006E6  4A3F               	infsnz	Hi_ISR@i_932^0,f,c
  2256   0006E8  2A40               	incf	(Hi_ISR@i_932+1)^0,f,c
  2257   0006EA                     i2l1616:
  2258   0006EA  5047               	movf	Hi_ISR@digits^0,w,c
  2259   0006EC  5C3F               	subwf	Hi_ISR@i_932^0,w,c
  2260   0006EE  5040               	movf	(Hi_ISR@i_932+1)^0,w,c
  2261   0006F0  0A80               	xorlw	128
  2262   0006F2  6E2A               	movwf	??_Hi_ISR^0,c
  2263   0006F4  5048               	movf	(Hi_ISR@digits+1)^0,w,c
  2264   0006F6  0A80               	xorlw	128
  2265   0006F8  582A               	subwfb	??_Hi_ISR^0,w,c
  2266   0006FA  A0D8               	btfss	status,0,c
  2267   0006FC  EF82  F003         	goto	i2u97_41
  2268   000700  EF84  F003         	goto	i2u97_40
  2269   000704                     i2u97_41:
  2270   000704  EF70  F003         	goto	i2l1612
  2271   000708                     i2u97_40:
  2272   000708                     
  2273                           ;basic.c: 30:             for(int i=0; i<digits; i++) UART_Write(' ');
  2274   000708  0E00               	movlw	0
  2275   00070A  6E42               	movwf	(Hi_ISR@i_933+1)^0,c
  2276   00070C  0E00               	movlw	0
  2277   00070E  6E41               	movwf	Hi_ISR@i_933^0,c
  2278   000710  EF8F  F003         	goto	i2l1624
  2279   000714                     i2l1620:
  2280   000714  0E20               	movlw	32
  2281   000716  EC1E  F007         	call	i2_UART_Write
  2282   00071A  4A41               	infsnz	Hi_ISR@i_933^0,f,c
  2283   00071C  2A42               	incf	(Hi_ISR@i_933+1)^0,f,c
  2284   00071E                     i2l1624:
  2285   00071E  5047               	movf	Hi_ISR@digits^0,w,c
  2286   000720  5C41               	subwf	Hi_ISR@i_933^0,w,c
  2287   000722  5042               	movf	(Hi_ISR@i_933+1)^0,w,c
  2288   000724  0A80               	xorlw	128
  2289   000726  6E2A               	movwf	??_Hi_ISR^0,c
  2290   000728  5048               	movf	(Hi_ISR@digits+1)^0,w,c
  2291   00072A  0A80               	xorlw	128
  2292   00072C  582A               	subwfb	??_Hi_ISR^0,w,c
  2293   00072E  A0D8               	btfss	status,0,c
  2294   000730  EF9C  F003         	goto	i2u98_41
  2295   000734  EF9E  F003         	goto	i2u98_40
  2296   000738                     i2u98_41:
  2297   000738  EF8A  F003         	goto	i2l1620
  2298   00073C                     i2u98_40:
  2299   00073C                     
  2300                           ;basic.c: 31:             for(int i=0; i<digits; i++) UART_Write('\b');
  2301   00073C  0E00               	movlw	0
  2302   00073E  6E44               	movwf	(Hi_ISR@i_934+1)^0,c
  2303   000740  0E00               	movlw	0
  2304   000742  6E43               	movwf	Hi_ISR@i_934^0,c
  2305   000744  EFA9  F003         	goto	i2l1632
  2306   000748                     i2l1628:
  2307   000748  0E08               	movlw	8
  2308   00074A  EC1E  F007         	call	i2_UART_Write
  2309   00074E  4A43               	infsnz	Hi_ISR@i_934^0,f,c
  2310   000750  2A44               	incf	(Hi_ISR@i_934+1)^0,f,c
  2311   000752                     i2l1632:
  2312   000752  5047               	movf	Hi_ISR@digits^0,w,c
  2313   000754  5C43               	subwf	Hi_ISR@i_934^0,w,c
  2314   000756  5044               	movf	(Hi_ISR@i_934+1)^0,w,c
  2315   000758  0A80               	xorlw	128
  2316   00075A  6E2A               	movwf	??_Hi_ISR^0,c
  2317   00075C  5048               	movf	(Hi_ISR@digits+1)^0,w,c
  2318   00075E  0A80               	xorlw	128
  2319   000760  582A               	subwfb	??_Hi_ISR^0,w,c
  2320   000762  A0D8               	btfss	status,0,c
  2321   000764  EFB6  F003         	goto	i2u99_41
  2322   000768  EFB8  F003         	goto	i2u99_40
  2323   00076C                     i2u99_41:
  2324   00076C  EFA4  F003         	goto	i2l1628
  2325   000770                     i2u99_40:
  2326   000770                     
  2327                           ;basic.c: 33:             char str_buf[10];;basic.c: 34:             sprintf(str_buf, "%
      +                          d", counter);
  2328   000770  0E33               	movlw	low Hi_ISR@str_buf
  2329   000772  6E1A               	movwf	sprintf@s^0,c
  2330   000774  0E01               	movlw	low STR_1
  2331   000776  6E1B               	movwf	sprintf@fmt^0,c
  2332   000778  C04D  F01C         	movff	_counter,?_sprintf+2	;volatile
  2333   00077C  C04E  F01D         	movff	_counter+1,?_sprintf+3	;volatile
  2334   000780  EC8C  F006         	call	_sprintf	;wreg free
  2335   000784                     
  2336                           ;basic.c: 35:             UART_Write_Text(str_buf);
  2337   000784  0E33               	movlw	low Hi_ISR@str_buf
  2338   000786  6E02               	movwf	i2UART_Write_Text@text^0,c
  2339   000788  6A03               	clrf	(i2UART_Write_Text@text+1)^0,c
  2340   00078A  EC0C  F006         	call	i2_UART_Write_Text	;wreg free
  2341   00078E                     i2l172:
  2342   00078E  A081               	btfss	129,0,c	;volatile
  2343   000790  EFCC  F003         	goto	i2u100_41
  2344   000794  EFCE  F003         	goto	i2u100_40
  2345   000798                     i2u100_41:
  2346   000798  EFC7  F003         	goto	i2l172
  2347   00079C                     i2u100_40:
  2348   00079C                     i2l157:
  2349                           
  2350                           ;basic.c: 42:         INTCONbits.INT0IF = 0;
  2351   00079C  92F2               	bcf	242,1,c	;volatile
  2352   00079E                     i2l175:
  2353   00079E  C032  FFF5         	movff	??_Hi_ISR+8,tablat
  2354   0007A2  C031  FFF8         	movff	??_Hi_ISR+7,tblptru
  2355   0007A6  C030  FFF7         	movff	??_Hi_ISR+6,tblptrh
  2356   0007AA  C02F  FFF6         	movff	??_Hi_ISR+5,tblptrl
  2357   0007AE  C02E  FFDA         	movff	??_Hi_ISR+4,fsr2h
  2358   0007B2  C02D  FFD9         	movff	??_Hi_ISR+3,fsr2l
  2359   0007B6  C02C  FFE2         	movff	??_Hi_ISR+2,fsr1h
  2360   0007BA  C02B  FFE1         	movff	??_Hi_ISR+1,fsr1l
  2361   0007BE  9266               	bcf	int$flags,1,c	;clear compiler interrupt flag (level 2)
  2362   0007C0  0011               	retfie		f
  2363   0007C2                     __end_of_Hi_ISR:
  2364                           	callstack 0
  2365                           
  2366 ;; *************** function i2_UART_Write_Text *****************
  2367 ;; Defined at:
  2368 ;;		line 49 in file "setting_hardaware/uart.c"
  2369 ;; Parameters:    Size  Location     Type
  2370 ;;  text            2    1[COMRAM] PTR unsigned char 
  2371 ;;		 -> STR_2(2), Hi_ISR@str_buf(10), 
  2372 ;; Auto vars:     Size  Location     Type
  2373 ;;  i               2    5[COMRAM] int 
  2374 ;; Return value:  Size  Location     Type
  2375 ;;                  1    wreg      void 
  2376 ;; Registers used:
  2377 ;;		wreg, fsr1l, fsr1h, status,2, status,0, tblptrl, tblptrh, tblptru, cstack
  2378 ;; Tracked objects:
  2379 ;;		On entry : 0/0
  2380 ;;		On exit  : 0/0
  2381 ;;		Unchanged: 0/0
  2382 ;; Data sizes:     COMRAM   BANK0   BANK1   BANK2   BANK3   BANK4   BANK5
  2383 ;;      Params:         2       0       0       0       0       0       0
  2384 ;;      Locals:         2       0       0       0       0       0       0
  2385 ;;      Temps:          2       0       0       0       0       0       0
  2386 ;;      Totals:         6       0       0       0       0       0       0
  2387 ;;Total ram usage:        6 bytes
  2388 ;; Hardware stack levels used: 1
  2389 ;; Hardware stack levels required when called: 1
  2390 ;; This function calls:
  2391 ;;		i2_UART_Write
  2392 ;; This function is called by:
  2393 ;;		_Hi_ISR
  2394 ;; This function uses a non-reentrant model
  2395 ;;
  2396                           
  2397                           	psect	text13
  2398   000C18                     __ptext13:
  2399                           	callstack 0
  2400   000C18                     i2_UART_Write_Text:
  2401                           	callstack 23
  2402   000C18                     
  2403                           ;setting_hardaware/uart.c: 50:     for(int i=0;text[i]!='\0';i++)
  2404   000C18  0E00               	movlw	0
  2405   000C1A  6E07               	movwf	(i2UART_Write_Text@i+1)^0,c
  2406   000C1C  0E00               	movlw	0
  2407   000C1E  6E06               	movwf	i2UART_Write_Text@i^0,c
  2408   000C20  EF2C  F006         	goto	i2l1572
  2409   000C24                     i2l1568:
  2410                           
  2411                           ;setting_hardaware/uart.c: 51:         UART_Write(text[i]);
  2412   000C24  5006               	movf	i2UART_Write_Text@i^0,w,c
  2413   000C26  2402               	addwf	i2UART_Write_Text@text^0,w,c
  2414   000C28  6E04               	movwf	??i2_UART_Write_Text^0,c
  2415   000C2A  5007               	movf	(i2UART_Write_Text@i+1)^0,w,c
  2416   000C2C  2003               	addwfc	(i2UART_Write_Text@text+1)^0,w,c
  2417   000C2E  6E05               	movwf	(??i2_UART_Write_Text+1)^0,c
  2418   000C30  C004  FFF6         	movff	??i2_UART_Write_Text,tblptrl
  2419   000C34  C005  FFF7         	movff	??i2_UART_Write_Text+1,tblptrh
  2420   000C38  6AF8               	clrf	tblptru,c
  2421   000C3A  0E05               	movlw	(high __ramtop+-1)
  2422   000C3C  64F7               	cpfsgt	tblptrh,c
  2423   000C3E  D003               	bra	i2u87_47
  2424   000C40  0008               	tblrd		*
  2425   000C42  50F5               	movf	tablat,w,c
  2426   000C44  D005               	bra	i2u87_40
  2427   000C46                     i2u87_47:
  2428   000C46  CFF6 FFE1          	movff	tblptrl,fsr1l
  2429   000C4A  CFF7 FFE2          	movff	tblptrh,fsr1h
  2430   000C4E  50E7               	movf	indf1,w,c
  2431   000C50                     i2u87_40:
  2432   000C50  EC1E  F007         	call	i2_UART_Write
  2433   000C54  4A06               	infsnz	i2UART_Write_Text@i^0,f,c
  2434   000C56  2A07               	incf	(i2UART_Write_Text@i+1)^0,f,c
  2435   000C58                     i2l1572:
  2436   000C58  5006               	movf	i2UART_Write_Text@i^0,w,c
  2437   000C5A  2402               	addwf	i2UART_Write_Text@text^0,w,c
  2438   000C5C  6E04               	movwf	??i2_UART_Write_Text^0,c
  2439   000C5E  5007               	movf	(i2UART_Write_Text@i+1)^0,w,c
  2440   000C60  2003               	addwfc	(i2UART_Write_Text@text+1)^0,w,c
  2441   000C62  6E05               	movwf	(??i2_UART_Write_Text+1)^0,c
  2442   000C64  C004  FFF6         	movff	??i2_UART_Write_Text,tblptrl
  2443   000C68  C005  FFF7         	movff	??i2_UART_Write_Text+1,tblptrh
  2444   000C6C  6AF8               	clrf	tblptru,c
  2445   000C6E  0E05               	movlw	(high __ramtop+-1)
  2446   000C70  64F7               	cpfsgt	tblptrh,c
  2447   000C72  D003               	bra	i2u88_47
  2448   000C74  0008               	tblrd		*
  2449   000C76  50F5               	movf	tablat,w,c
  2450   000C78  D005               	bra	i2u88_40
  2451   000C7A                     i2u88_47:
  2452   000C7A  CFF6 FFE1          	movff	tblptrl,fsr1l
  2453   000C7E  CFF7 FFE2          	movff	tblptrh,fsr1h
  2454   000C82  50E7               	movf	indf1,w,c
  2455   000C84                     i2u88_40:
  2456   000C84  0900               	iorlw	0
  2457   000C86  A4D8               	btfss	status,2,c
  2458   000C88  EF48  F006         	goto	i2u89_41
  2459   000C8C  EF4A  F006         	goto	i2u89_40
  2460   000C90                     i2u89_41:
  2461   000C90  EF12  F006         	goto	i2l1568
  2462   000C94                     i2u89_40:
  2463   000C94  0012               	return		;funcret
  2464   000C96                     __end_ofi2_UART_Write_Text:
  2465                           	callstack 0
  2466                           
  2467 ;; *************** function i2_UART_Write *****************
  2468 ;; Defined at:
  2469 ;;		line 42 in file "setting_hardaware/uart.c"
  2470 ;; Parameters:    Size  Location     Type
  2471 ;;  data            1    wreg     unsigned char 
  2472 ;; Auto vars:     Size  Location     Type
  2473 ;;  data            1    0[COMRAM] unsigned char 
  2474 ;; Return value:  Size  Location     Type
  2475 ;;                  1    wreg      void 
  2476 ;; Registers used:
  2477 ;;		wreg
  2478 ;; Tracked objects:
  2479 ;;		On entry : 0/0
  2480 ;;		On exit  : 0/0
  2481 ;;		Unchanged: 0/0
  2482 ;; Data sizes:     COMRAM   BANK0   BANK1   BANK2   BANK3   BANK4   BANK5
  2483 ;;      Params:         0       0       0       0       0       0       0
  2484 ;;      Locals:         1       0       0       0       0       0       0
  2485 ;;      Temps:          0       0       0       0       0       0       0
  2486 ;;      Totals:         1       0       0       0       0       0       0
  2487 ;;Total ram usage:        1 bytes
  2488 ;; Hardware stack levels used: 1
  2489 ;; This function calls:
  2490 ;;		Nothing
  2491 ;; This function is called by:
  2492 ;;		_Hi_ISR
  2493 ;;		i2_UART_Write_Text
  2494 ;; This function uses a non-reentrant model
  2495 ;;
  2496                           
  2497                           	psect	text14
  2498   000E3C                     __ptext14:
  2499                           	callstack 0
  2500   000E3C                     i2_UART_Write:
  2501                           	callstack 23
  2502                           
  2503                           ;incstack = 0
  2504                           ;i2UART_Write@data stored from wreg
  2505   000E3C  6E01               	movwf	i2UART_Write@data^0,c
  2506   000E3E                     i2l58:
  2507   000E3E  A2AC               	btfss	172,1,c	;volatile
  2508   000E40  EF24  F007         	goto	i2u82_41
  2509   000E44  EF26  F007         	goto	i2u82_40
  2510   000E48                     i2u82_41:
  2511   000E48  EF1F  F007         	goto	i2l58
  2512   000E4C                     i2u82_40:
  2513   000E4C                     
  2514                           ;setting_hardaware/uart.c: 45:     TXREG = data;
  2515   000E4C  C001  FFAD         	movff	i2UART_Write@data,4013	;volatile
  2516   000E50  0012               	return		;funcret
  2517   000E52                     __end_ofi2_UART_Write:
  2518                           	callstack 0
  2519                           
  2520 ;; *************** function _sprintf *****************
  2521 ;; Defined at:
  2522 ;;		line 9 in file "C:\Program Files\Microchip\xc8\v3.00\pic\sources\c99\common\nf_sprintf.c"
  2523 ;; Parameters:    Size  Location     Type
  2524 ;;  s               1   25[COMRAM] PTR unsigned char 
  2525 ;;		 -> Hi_ISR@str_buf(10), 
  2526 ;;  fmt             1   26[COMRAM] PTR const unsigned char 
  2527 ;;		 -> STR_1(3), 
  2528 ;; Auto vars:     Size  Location     Type
  2529 ;;  f              11   30[COMRAM] struct _IO_FILE
  2530 ;;  ret             2    0        int 
  2531 ;;  ap              1   29[COMRAM] PTR void [1]
  2532 ;;		 -> ?_sprintf(2), 
  2533 ;; Return value:  Size  Location     Type
  2534 ;;                  2   25[COMRAM] int 
  2535 ;; Registers used:
  2536 ;;		wreg, fsr1l, fsr1h, fsr2l, fsr2h, status,2, status,0, tblptrl, tblptrh, tblptru, cstack
  2537 ;; Tracked objects:
  2538 ;;		On entry : 0/0
  2539 ;;		On exit  : 0/0
  2540 ;;		Unchanged: 0/0
  2541 ;; Data sizes:     COMRAM   BANK0   BANK1   BANK2   BANK3   BANK4   BANK5
  2542 ;;      Params:         4       0       0       0       0       0       0
  2543 ;;      Locals:        12       0       0       0       0       0       0
  2544 ;;      Temps:          0       0       0       0       0       0       0
  2545 ;;      Totals:        16       0       0       0       0       0       0
  2546 ;;Total ram usage:       16 bytes
  2547 ;; Hardware stack levels used: 1
  2548 ;; Hardware stack levels required when called: 4
  2549 ;; This function calls:
  2550 ;;		_vfprintf
  2551 ;; This function is called by:
  2552 ;;		_Hi_ISR
  2553 ;; This function uses a non-reentrant model
  2554 ;;
  2555                           
  2556                           	psect	text15
  2557   000D18                     __ptext15:
  2558                           	callstack 0
  2559   000D18                     _sprintf:
  2560                           	callstack 20
  2561   000D18  0E1C               	movlw	low (?_sprintf+2)
  2562   000D1A  6E1E               	movwf	sprintf@ap^0,c
  2563   000D1C  C01A  F01F         	movff	sprintf@s,sprintf@f
  2564   000D20  0E00               	movlw	0
  2565   000D22  6E22               	movwf	(sprintf@f+3)^0,c
  2566   000D24  0E00               	movlw	0
  2567   000D26  6E21               	movwf	(sprintf@f+2)^0,c
  2568   000D28  0E00               	movlw	0
  2569   000D2A  6E29               	movwf	(sprintf@f+10)^0,c
  2570   000D2C  0E00               	movlw	0
  2571   000D2E  6E28               	movwf	(sprintf@f+9)^0,c
  2572   000D30  0E1F               	movlw	low sprintf@f
  2573   000D32  6E16               	movwf	vfprintf@fp^0,c
  2574   000D34  C01B  F017         	movff	sprintf@fmt,vfprintf@fmt
  2575   000D38  0E1E               	movlw	low sprintf@ap
  2576   000D3A  6E18               	movwf	vfprintf@ap^0,c
  2577   000D3C  EC6D  F006         	call	_vfprintf	;wreg free
  2578   000D40  501A               	movf	sprintf@s^0,w,c
  2579   000D42  2421               	addwf	(sprintf@f+2)^0,w,c
  2580   000D44  6ED9               	movwf	fsr2l,c
  2581   000D46  6ADA               	clrf	fsr2h,c
  2582   000D48  6ADF               	clrf	indf2,c
  2583   000D4A  0012               	return		;funcret
  2584   000D4C                     __end_of_sprintf:
  2585                           	callstack 0
  2586                           
  2587 ;; *************** function _vfprintf *****************
  2588 ;; Defined at:
  2589 ;;		line 1817 in file "C:\Program Files\Microchip\xc8\v3.00\pic\sources\c99\common\doprnt.c"
  2590 ;; Parameters:    Size  Location     Type
  2591 ;;  fp              1   21[COMRAM] PTR struct _IO_FILE
  2592 ;;		 -> sprintf@f(11), 
  2593 ;;  fmt             1   22[COMRAM] PTR const unsigned char 
  2594 ;;		 -> STR_1(3), 
  2595 ;;  ap              1   23[COMRAM] PTR PTR void 
  2596 ;;		 -> sprintf@ap(1), 
  2597 ;; Auto vars:     Size  Location     Type
  2598 ;;  cfmt            1   24[COMRAM] PTR unsigned char 
  2599 ;;		 -> STR_1(3), 
  2600 ;; Return value:  Size  Location     Type
  2601 ;;                  2   21[COMRAM] int 
  2602 ;; Registers used:
  2603 ;;		wreg, fsr1l, fsr1h, fsr2l, fsr2h, status,2, status,0, tblptrl, tblptrh, tblptru, cstack
  2604 ;; Tracked objects:
  2605 ;;		On entry : 0/0
  2606 ;;		On exit  : 0/0
  2607 ;;		Unchanged: 0/0
  2608 ;; Data sizes:     COMRAM   BANK0   BANK1   BANK2   BANK3   BANK4   BANK5
  2609 ;;      Params:         3       0       0       0       0       0       0
  2610 ;;      Locals:         1       0       0       0       0       0       0
  2611 ;;      Temps:          0       0       0       0       0       0       0
  2612 ;;      Totals:         4       0       0       0       0       0       0
  2613 ;;Total ram usage:        4 bytes
  2614 ;; Hardware stack levels used: 1
  2615 ;; Hardware stack levels required when called: 3
  2616 ;; This function calls:
  2617 ;;		_vfpfcnvrt
  2618 ;; This function is called by:
  2619 ;;		_sprintf
  2620 ;; This function uses a non-reentrant model
  2621 ;;
  2622                           
  2623                           	psect	text16
  2624   000CDA                     __ptext16:
  2625                           	callstack 0
  2626   000CDA                     _vfprintf:
  2627                           	callstack 20
  2628   000CDA                     
  2629                           ;C:\Program Files\Microchip\xc8\v3.00\pic\sources\c99\common\doprnt.c: 1817: int vfprint
      +                          f(FILE *fp, const char *fmt, va_list ap);C:\Program Files\Microchip\xc8\v3.00\pic\source
      +                          s\c99\common\doprnt.c: 1818: {;C:\Program Files\Microchip\xc8\v3.00\pic\sources\c99\comm
      +                          on\doprnt.c: 1820:     char *cfmt;;C:\Program Files\Microchip\xc8\v3.00\pic\sources\c99\
      +                          common\doprnt.c: 1822:     cfmt = (char *)fmt;
  2630   000CDA  C017  F019         	movff	vfprintf@fmt,vfprintf@cfmt
  2631                           
  2632                           ;C:\Program Files\Microchip\xc8\v3.00\pic\sources\c99\common\doprnt.c: 1826:     while (
      +                          *cfmt) {
  2633   000CDE  EF79  F006         	goto	i2l1510
  2634   000CE2                     i2l1508:
  2635                           
  2636                           ;C:\Program Files\Microchip\xc8\v3.00\pic\sources\c99\common\doprnt.c: 1830:    vfpfcnvr
      +                          t(fp, &cfmt, ap);
  2637   000CE2  C016  F00B         	movff	vfprintf@fp,vfpfcnvrt@fp
  2638   000CE6  0E19               	movlw	low vfprintf@cfmt
  2639   000CE8  6E0C               	movwf	vfpfcnvrt@fmt^0,c
  2640   000CEA  C018  F00D         	movff	vfprintf@ap,vfpfcnvrt@ap
  2641   000CEE  ECE1  F003         	call	_vfpfcnvrt	;wreg free
  2642   000CF2                     i2l1510:
  2643                           
  2644                           ;C:\Program Files\Microchip\xc8\v3.00\pic\sources\c99\common\doprnt.c: 1826:     while (
      +                          *cfmt) {
  2645   000CF2  C019  FFF6         	movff	vfprintf@cfmt,tblptrl
  2646   000CF6                     	if	1	;There is more than 1 active tblptr byte
  2647   000CF6  0E06               	movlw	high __smallconst
  2648   000CF8  6EF7               	movwf	tblptrh,c
  2649   000CFA                     	endif
  2650   000CFA                     	if	0	;tblptru may be non-zero
  2651   000CFA                     	endif
  2652   000CFA                     	if	0	;tblptru may be non-zero
  2653   000CFA                     	endif
  2654   000CFA  0008               	tblrd		*
  2655   000CFC  50F5               	movf	tablat,w,c
  2656   000CFE  0900               	iorlw	0
  2657   000D00  A4D8               	btfss	status,2,c
  2658   000D02  EF85  F006         	goto	i2u80_41
  2659   000D06  EF87  F006         	goto	i2u80_40
  2660   000D0A                     i2u80_41:
  2661   000D0A  EF71  F006         	goto	i2l1508
  2662   000D0E                     i2u80_40:
  2663   000D0E                     
  2664                           ;C:\Program Files\Microchip\xc8\v3.00\pic\sources\c99\common\doprnt.c: 1835:  return 0;
  2665   000D0E  0E00               	movlw	0
  2666   000D10  6E17               	movwf	(?_vfprintf+1)^0,c
  2667   000D12  0E00               	movlw	0
  2668   000D14  6E16               	movwf	?_vfprintf^0,c
  2669   000D16  0012               	return		;funcret
  2670   000D18                     __end_of_vfprintf:
  2671                           	callstack 0
  2672                           
  2673 ;; *************** function _vfpfcnvrt *****************
  2674 ;; Defined at:
  2675 ;;		line 1177 in file "C:\Program Files\Microchip\xc8\v3.00\pic\sources\c99\common\doprnt.c"
  2676 ;; Parameters:    Size  Location     Type
  2677 ;;  fp              1   10[COMRAM] PTR struct _IO_FILE
  2678 ;;		 -> sprintf@f(11), 
  2679 ;;  fmt             1   11[COMRAM] PTR PTR unsigned char 
  2680 ;;		 -> vfprintf@cfmt(1), 
  2681 ;;  ap              1   12[COMRAM] PTR PTR void 
  2682 ;;		 -> sprintf@ap(1), 
  2683 ;; Auto vars:     Size  Location     Type
  2684 ;;  convarg         4   16[COMRAM] struct .
  2685 ;;  c               1   20[COMRAM] unsigned char 
  2686 ;;  cp              1   15[COMRAM] PTR unsigned char 
  2687 ;;		 -> STR_1(3), 
  2688 ;;  done            1   14[COMRAM] _Bool 
  2689 ;; Return value:  Size  Location     Type
  2690 ;;                  1    wreg      void 
  2691 ;; Registers used:
  2692 ;;		wreg, fsr1l, fsr1h, fsr2l, fsr2h, status,2, status,0, tblptrl, tblptrh, tblptru, cstack
  2693 ;; Tracked objects:
  2694 ;;		On entry : 0/0
  2695 ;;		On exit  : 0/0
  2696 ;;		Unchanged: 0/0
  2697 ;; Data sizes:     COMRAM   BANK0   BANK1   BANK2   BANK3   BANK4   BANK5
  2698 ;;      Params:         3       0       0       0       0       0       0
  2699 ;;      Locals:         7       0       0       0       0       0       0
  2700 ;;      Temps:          1       0       0       0       0       0       0
  2701 ;;      Totals:        11       0       0       0       0       0       0
  2702 ;;Total ram usage:       11 bytes
  2703 ;; Hardware stack levels used: 1
  2704 ;; Hardware stack levels required when called: 2
  2705 ;; This function calls:
  2706 ;;		___awdiv
  2707 ;;		___awmod
  2708 ;;		_abs
  2709 ;;		_fputc
  2710 ;; This function is called by:
  2711 ;;		_vfprintf
  2712 ;; This function uses a non-reentrant model
  2713 ;;
  2714                           
  2715                           	psect	text17
  2716   0007C2                     __ptext17:
  2717                           	callstack 0
  2718   0007C2                     _vfpfcnvrt:
  2719                           	callstack 20
  2720   0007C2                     
  2721                           ;C:\Program Files\Microchip\xc8\v3.00\pic\sources\c99\common\doprnt.c: 1177: vfpfcnvrt(F
      +                          ILE *fp, char *fmt[], va_list ap);C:\Program Files\Microchip\xc8\v3.00\pic\sources\c99\c
      +                          ommon\doprnt.c: 1178: {;C:\Program Files\Microchip\xc8\v3.00\pic\sources\c99\common\dopr
      +                          nt.c: 1179:     char c, *cp;;C:\Program Files\Microchip\xc8\v3.00\pic\sources\c99\common
      +                          \doprnt.c: 1180:     _Bool done;;C:\Program Files\Microchip\xc8\v3.00\pic\sources\c99\co
      +                          mmon\doprnt.c: 1188:  } convarg;;C:\Program Files\Microchip\xc8\v3.00\pic\sources\c99\co
      +                          mmon\doprnt.c: 1201:     if ((*fmt)[0] == '%') {
  2722   0007C2  500C               	movf	vfpfcnvrt@fmt^0,w,c
  2723   0007C4  6ED9               	movwf	fsr2l,c
  2724   0007C6  6ADA               	clrf	fsr2h,c
  2725   0007C8  CFDF FFF6          	movff	indf2,tblptrl
  2726   0007CC                     	if	1	;There is more than 1 active tblptr byte
  2727   0007CC  0E06               	movlw	high __smallconst
  2728   0007CE  6EF7               	movwf	tblptrh,c
  2729   0007D0                     	endif
  2730   0007D0                     	if	0	;tblptru may be non-zero
  2731   0007D0                     	endif
  2732   0007D0                     	if	0	;tblptru may be non-zero
  2733   0007D0                     	endif
  2734   0007D0  0008               	tblrd		*
  2735   0007D2  50F5               	movf	tablat,w,c
  2736   0007D4  0A25               	xorlw	37
  2737   0007D6  A4D8               	btfss	status,2,c
  2738   0007D8  EFF0  F003         	goto	i2u69_41
  2739   0007DC  EFF2  F003         	goto	i2u69_40
  2740   0007E0                     i2u69_41:
  2741   0007E0  EFAB  F004         	goto	i2l1452
  2742   0007E4                     i2u69_40:
  2743   0007E4                     
  2744                           ;C:\Program Files\Microchip\xc8\v3.00\pic\sources\c99\common\doprnt.c: 1202:         ++*
      +                          fmt;
  2745   0007E4  500C               	movf	vfpfcnvrt@fmt^0,w,c
  2746   0007E6  6ED9               	movwf	fsr2l,c
  2747   0007E8  6ADA               	clrf	fsr2h,c
  2748   0007EA  2ADF               	incf	indf2,f,c
  2749   0007EC                     
  2750                           ;C:\Program Files\Microchip\xc8\v3.00\pic\sources\c99\common\doprnt.c: 1204:         fla
      +                          gs = width = 0;
  2751   0007EC  0E00               	movlw	0
  2752   0007EE  6E4A               	movwf	(_width+1)^0,c
  2753   0007F0  0E00               	movlw	0
  2754   0007F2  6E49               	movwf	_width^0,c
  2755   0007F4  C049  F051         	movff	_width,_flags
  2756   0007F8                     
  2757                           ;C:\Program Files\Microchip\xc8\v3.00\pic\sources\c99\common\doprnt.c: 1205:         pre
      +                          c = -1;
  2758   0007F8  684B               	setf	_prec^0,c
  2759   0007FA  684C               	setf	(_prec+1)^0,c
  2760   0007FC                     
  2761                           ;C:\Program Files\Microchip\xc8\v3.00\pic\sources\c99\common\doprnt.c: 1291:   cp = *fmt
      +                          ;
  2762   0007FC  500C               	movf	vfpfcnvrt@fmt^0,w,c
  2763   0007FE  6ED9               	movwf	fsr2l,c
  2764   000800  6ADA               	clrf	fsr2h,c
  2765   000802  50DF               	movf	indf2,w,c
  2766   000804  6E10               	movwf	vfpfcnvrt@cp^0,c
  2767   000806                     
  2768                           ;C:\Program Files\Microchip\xc8\v3.00\pic\sources\c99\common\doprnt.c: 1361:   if (*cp =
      +                          = 'd' || *cp == 'i') {
  2769   000806  C010  FFF6         	movff	vfpfcnvrt@cp,tblptrl
  2770   00080A                     	if	1	;There is more than 1 active tblptr byte
  2771   00080A  0E06               	movlw	high __smallconst
  2772   00080C  6EF7               	movwf	tblptrh,c
  2773   00080E                     	endif
  2774   00080E                     	if	0	;tblptru may be non-zero
  2775   00080E                     	endif
  2776   00080E                     	if	0	;tblptru may be non-zero
  2777   00080E                     	endif
  2778   00080E  0008               	tblrd		*
  2779   000810  50F5               	movf	tablat,w,c
  2780   000812  0A64               	xorlw	100
  2781   000814  B4D8               	btfsc	status,2,c
  2782   000816  EF0F  F004         	goto	i2u70_41
  2783   00081A  EF11  F004         	goto	i2u70_40
  2784   00081E                     i2u70_41:
  2785   00081E  EF1F  F004         	goto	i2l1422
  2786   000822                     i2u70_40:
  2787   000822  C010  FFF6         	movff	vfpfcnvrt@cp,tblptrl
  2788   000826                     	if	1	;There is more than 1 active tblptr byte
  2789   000826  0E06               	movlw	high __smallconst
  2790   000828  6EF7               	movwf	tblptrh,c
  2791   00082A                     	endif
  2792   00082A                     	if	0	;tblptru may be non-zero
  2793   00082A                     	endif
  2794   00082A                     	if	0	;tblptru may be non-zero
  2795   00082A                     	endif
  2796   00082A  0008               	tblrd		*
  2797   00082C  50F5               	movf	tablat,w,c
  2798   00082E  0A69               	xorlw	105
  2799   000830  A4D8               	btfss	status,2,c
  2800   000832  EF1D  F004         	goto	i2u71_41
  2801   000836  EF1F  F004         	goto	i2u71_40
  2802   00083A                     i2u71_41:
  2803   00083A  EFA5  F004         	goto	i2l1448
  2804   00083E                     i2u71_40:
  2805   00083E                     i2l1422:
  2806                           
  2807                           ;C:\Program Files\Microchip\xc8\v3.00\pic\sources\c99\common\doprnt.c: 1404:    convarg.
      +                          sint = (vfpf_sint_t)(int)(*(int *)__va_arg(*(int **)ap, (int)0));
  2808   00083E  500D               	movf	vfpfcnvrt@ap^0,w,c
  2809   000840  6ED9               	movwf	fsr2l,c
  2810   000842  6ADA               	clrf	fsr2h,c
  2811   000844  0E02               	movlw	2
  2812   000846  26DF               	addwf	indf2,f,c
  2813   000848  5CDF               	subwf	indf2,w,c
  2814   00084A  6ED9               	movwf	fsr2l,c
  2815   00084C  6ADA               	clrf	fsr2h,c
  2816   00084E  CFDE F011          	movff	postinc2,vfpfcnvrt@convarg
  2817   000852  CFDE F012          	movff	postinc2,vfpfcnvrt@convarg+1
  2818   000856                     
  2819                           ;C:\Program Files\Microchip\xc8\v3.00\pic\sources\c99\common\doprnt.c: 1406:    *fmt = c
      +                          p+1;
  2820   000856  500C               	movf	vfpfcnvrt@fmt^0,w,c
  2821   000858  6ED9               	movwf	fsr2l,c
  2822   00085A  6ADA               	clrf	fsr2h,c
  2823   00085C  2810               	incf	vfpfcnvrt@cp^0,w,c
  2824   00085E  6EDF               	movwf	indf2,c
  2825   000860                     
  2826                           ;C:\Program Files\Microchip\xc8\v3.00\pic\sources\c99\common\doprnt.c: 1408:    c = size
      +                          of(dbuf);
  2827   000860  0E20               	movlw	32
  2828   000862  6E15               	movwf	vfpfcnvrt@c^0,c
  2829                           
  2830                           ;C:\Program Files\Microchip\xc8\v3.00\pic\sources\c99\common\doprnt.c: 1409:    done = c
      +                          onvarg.sint < 0;
  2831   000864  BE12               	btfsc	(vfpfcnvrt@convarg+1)^0,7,c
  2832   000866  EF37  F004         	goto	i2u72_41
  2833   00086A  EF3A  F004         	goto	i2u72_40
  2834   00086E                     i2u72_41:
  2835   00086E  0E01               	movlw	1
  2836   000870  EF3B  F004         	goto	i2u73_40
  2837   000874                     i2u72_40:
  2838   000874  0E00               	movlw	0
  2839   000876                     i2u73_40:
  2840   000876  6E0F               	movwf	vfpfcnvrt@done^0,c
  2841   000878                     i2l1428:
  2842                           
  2843                           ;C:\Program Files\Microchip\xc8\v3.00\pic\sources\c99\common\doprnt.c: 1411:     dbuf[--
      +                          c] = abs(convarg.sint % 10) + '0';
  2844   000878  0615               	decf	vfpfcnvrt@c^0,f,c
  2845   00087A  5015               	movf	vfpfcnvrt@c^0,w,c
  2846   00087C  0F80               	addlw	low _dbuf
  2847   00087E  6ED9               	movwf	fsr2l,c
  2848   000880  6ADA               	clrf	fsr2h,c
  2849   000882  C011  F001         	movff	vfpfcnvrt@convarg,___awmod@dividend
  2850   000886  C012  F002         	movff	vfpfcnvrt@convarg+1,___awmod@dividend+1
  2851   00088A  0E00               	movlw	0
  2852   00088C  6E04               	movwf	(___awmod@divisor+1)^0,c
  2853   00088E  0E0A               	movlw	10
  2854   000890  6E03               	movwf	___awmod@divisor^0,c
  2855   000892  EC1E  F005         	call	___awmod	;wreg free
  2856   000896  C001  F007         	movff	?___awmod,abs@a
  2857   00089A  C002  F008         	movff	?___awmod+1,abs@a+1
  2858   00089E  ECA6  F006         	call	_abs	;wreg free
  2859   0008A2  5007               	movf	?_abs^0,w,c
  2860   0008A4  0F30               	addlw	48
  2861   0008A6  6EDF               	movwf	indf2,c
  2862   0008A8                     
  2863                           ;C:\Program Files\Microchip\xc8\v3.00\pic\sources\c99\common\doprnt.c: 1412:     convarg
      +                          .sint /= 10;
  2864   0008A8  C011  F001         	movff	vfpfcnvrt@convarg,___awdiv@dividend
  2865   0008AC  C012  F002         	movff	vfpfcnvrt@convarg+1,___awdiv@dividend+1
  2866   0008B0  0E00               	movlw	0
  2867   0008B2  6E04               	movwf	(___awdiv@divisor+1)^0,c
  2868   0008B4  0E0A               	movlw	10
  2869   0008B6  6E03               	movwf	___awdiv@divisor^0,c
  2870   0008B8  ECBD  F004         	call	___awdiv	;wreg free
  2871   0008BC  C001  F011         	movff	?___awdiv,vfpfcnvrt@convarg
  2872   0008C0  C002  F012         	movff	?___awdiv+1,vfpfcnvrt@convarg+1
  2873   0008C4                     
  2874                           ;C:\Program Files\Microchip\xc8\v3.00\pic\sources\c99\common\doprnt.c: 1416:    } while 
      +                          (convarg.sint != 0 && c != 0);
  2875   0008C4  5011               	movf	vfpfcnvrt@convarg^0,w,c
  2876   0008C6  1012               	iorwf	(vfpfcnvrt@convarg+1)^0,w,c
  2877   0008C8  B4D8               	btfsc	status,2,c
  2878   0008CA  EF69  F004         	goto	i2u74_41
  2879   0008CE  EF6B  F004         	goto	i2u74_40
  2880   0008D2                     i2u74_41:
  2881   0008D2  EF73  F004         	goto	i2l1436
  2882   0008D6                     i2u74_40:
  2883   0008D6  5015               	movf	vfpfcnvrt@c^0,w,c
  2884   0008D8  A4D8               	btfss	status,2,c
  2885   0008DA  EF71  F004         	goto	i2u75_41
  2886   0008DE  EF73  F004         	goto	i2u75_40
  2887   0008E2                     i2u75_41:
  2888   0008E2  EF3C  F004         	goto	i2l1428
  2889   0008E6                     i2u75_40:
  2890   0008E6                     i2l1436:
  2891                           
  2892                           ;C:\Program Files\Microchip\xc8\v3.00\pic\sources\c99\common\doprnt.c: 1417:    if (c !=
      +                           0 && done) {
  2893   0008E6  5015               	movf	vfpfcnvrt@c^0,w,c
  2894   0008E8  B4D8               	btfsc	status,2,c
  2895   0008EA  EF79  F004         	goto	i2u76_41
  2896   0008EE  EF7B  F004         	goto	i2u76_40
  2897   0008F2                     i2u76_41:
  2898   0008F2  EF9A  F004         	goto	i2l1446
  2899   0008F6                     i2u76_40:
  2900   0008F6  500F               	movf	vfpfcnvrt@done^0,w,c
  2901   0008F8  B4D8               	btfsc	status,2,c
  2902   0008FA  EF81  F004         	goto	i2u77_41
  2903   0008FE  EF83  F004         	goto	i2u77_40
  2904   000902                     i2u77_41:
  2905   000902  EF9A  F004         	goto	i2l1446
  2906   000906                     i2u77_40:
  2907   000906                     
  2908                           ;C:\Program Files\Microchip\xc8\v3.00\pic\sources\c99\common\doprnt.c: 1418:     dbuf[--
      +                          c] = '-';
  2909   000906  0615               	decf	vfpfcnvrt@c^0,f,c
  2910   000908  5015               	movf	vfpfcnvrt@c^0,w,c
  2911   00090A  0F80               	addlw	low _dbuf
  2912   00090C  6ED9               	movwf	fsr2l,c
  2913   00090E  6ADA               	clrf	fsr2h,c
  2914   000910  0E2D               	movlw	45
  2915   000912  6EDF               	movwf	indf2,c
  2916   000914  EF9A  F004         	goto	i2l1446
  2917   000918                     i2l1442:
  2918                           
  2919                           ;C:\Program Files\Microchip\xc8\v3.00\pic\sources\c99\common\doprnt.c: 1424:     fputc(d
      +                          buf[c++], fp);
  2920   000918  5015               	movf	vfpfcnvrt@c^0,w,c
  2921   00091A  0F80               	addlw	low _dbuf
  2922   00091C  6ED9               	movwf	fsr2l,c
  2923   00091E  6ADA               	clrf	fsr2h,c
  2924   000920  50DF               	movf	indf2,w,c
  2925   000922  6E0E               	movwf	??_vfpfcnvrt^0,c
  2926   000924  500E               	movf	??_vfpfcnvrt^0,w,c
  2927   000926  6E01               	movwf	fputc@c^0,c
  2928   000928  6A02               	clrf	(fputc@c+1)^0,c
  2929   00092A  C00B  F003         	movff	vfpfcnvrt@fp,fputc@fp
  2930   00092E  EC75  F005         	call	_fputc	;wreg free
  2931   000932  2A15               	incf	vfpfcnvrt@c^0,f,c
  2932   000934                     i2l1446:
  2933                           
  2934                           ;C:\Program Files\Microchip\xc8\v3.00\pic\sources\c99\common\doprnt.c: 1423:    while (c
      +                           != sizeof(dbuf)) {
  2935   000934  0E20               	movlw	32
  2936   000936  1815               	xorwf	vfpfcnvrt@c^0,w,c
  2937   000938  A4D8               	btfss	status,2,c
  2938   00093A  EFA1  F004         	goto	i2u78_41
  2939   00093E  EFA3  F004         	goto	i2u78_40
  2940   000942                     i2u78_41:
  2941   000942  EF8C  F004         	goto	i2l1442
  2942   000946                     i2u78_40:
  2943   000946  EFBC  F004         	goto	i2l902
  2944   00094A                     i2l1448:
  2945                           
  2946                           ;C:\Program Files\Microchip\xc8\v3.00\pic\sources\c99\common\doprnt.c: 1806:         ++*
      +                          fmt;
  2947   00094A  500C               	movf	vfpfcnvrt@fmt^0,w,c
  2948   00094C  6ED9               	movwf	fsr2l,c
  2949   00094E  6ADA               	clrf	fsr2h,c
  2950   000950  2ADF               	incf	indf2,f,c
  2951   000952  EFBC  F004         	goto	i2l902
  2952   000956                     i2l1452:
  2953                           
  2954                           ;C:\Program Files\Microchip\xc8\v3.00\pic\sources\c99\common\doprnt.c: 1811:     fputc((
      +                          int)(*fmt)[0], fp);
  2955   000956  500C               	movf	vfpfcnvrt@fmt^0,w,c
  2956   000958  6ED9               	movwf	fsr2l,c
  2957   00095A  6ADA               	clrf	fsr2h,c
  2958   00095C  CFDF FFF6          	movff	indf2,tblptrl
  2959   000960                     	if	1	;There is more than 1 active tblptr byte
  2960   000960  0E06               	movlw	high __smallconst
  2961   000962  6EF7               	movwf	tblptrh,c
  2962   000964                     	endif
  2963   000964                     	if	0	;tblptru may be non-zero
  2964   000964                     	endif
  2965   000964                     	if	0	;tblptru may be non-zero
  2966   000964                     	endif
  2967   000964  0008               	tblrd		*
  2968   000966  50F5               	movf	tablat,w,c
  2969   000968  6E01               	movwf	fputc@c^0,c
  2970   00096A  6A02               	clrf	(fputc@c+1)^0,c
  2971   00096C  C00B  F003         	movff	vfpfcnvrt@fp,fputc@fp
  2972   000970  EC75  F005         	call	_fputc	;wreg free
  2973   000974  EFA5  F004         	goto	i2l1448
  2974   000978                     i2l902:
  2975   000978  0012               	return		;funcret
  2976   00097A                     __end_of_vfpfcnvrt:
  2977                           	callstack 0
  2978                           
  2979 ;; *************** function _fputc *****************
  2980 ;; Defined at:
  2981 ;;		line 8 in file "C:\Program Files\Microchip\xc8\v3.00\pic\sources\c99\common\nf_fputc.c"
  2982 ;; Parameters:    Size  Location     Type
  2983 ;;  c               2    0[COMRAM] int 
  2984 ;;  fp              1    2[COMRAM] PTR struct _IO_FILE
  2985 ;;		 -> sprintf@f(11), 
  2986 ;; Auto vars:     Size  Location     Type
  2987 ;;		None
  2988 ;; Return value:  Size  Location     Type
  2989 ;;                  2    0[COMRAM] int 
  2990 ;; Registers used:
  2991 ;;		wreg, fsr1l, fsr1h, fsr2l, fsr2h, status,2, status,0, cstack
  2992 ;; Tracked objects:
  2993 ;;		On entry : 0/0
  2994 ;;		On exit  : 0/0
  2995 ;;		Unchanged: 0/0
  2996 ;; Data sizes:     COMRAM   BANK0   BANK1   BANK2   BANK3   BANK4   BANK5
  2997 ;;      Params:         3       0       0       0       0       0       0
  2998 ;;      Locals:         0       0       0       0       0       0       0
  2999 ;;      Temps:          5       0       0       0       0       0       0
  3000 ;;      Totals:         8       0       0       0       0       0       0
  3001 ;;Total ram usage:        8 bytes
  3002 ;; Hardware stack levels used: 1
  3003 ;; Hardware stack levels required when called: 1
  3004 ;; This function calls:
  3005 ;;		_putch
  3006 ;; This function is called by:
  3007 ;;		_vfpfcnvrt
  3008 ;; This function uses a non-reentrant model
  3009 ;;
  3010                           
  3011                           	psect	text18
  3012   000AEA                     __ptext18:
  3013                           	callstack 0
  3014   000AEA                     _fputc:
  3015                           	callstack 20
  3016   000AEA  5003               	movf	fputc@fp^0,w,c
  3017   000AEC  B4D8               	btfsc	status,2,c
  3018   000AEE  EF7B  F005         	goto	i2u64_41
  3019   000AF2  EF7D  F005         	goto	i2u64_40
  3020   000AF6                     i2u64_41:
  3021   000AF6  EF85  F005         	goto	i2l1394
  3022   000AFA                     i2u64_40:
  3023   000AFA  5003               	movf	fputc@fp^0,w,c
  3024   000AFC  A4D8               	btfss	status,2,c
  3025   000AFE  EF83  F005         	goto	i2u65_41
  3026   000B02  EF85  F005         	goto	i2u65_40
  3027   000B06                     i2u65_41:
  3028   000B06  EF8A  F005         	goto	i2l1396
  3029   000B0A                     i2u65_40:
  3030   000B0A                     i2l1394:
  3031   000B0A  5001               	movf	fputc@c^0,w,c
  3032   000B0C  EC40  F007         	call	_putch
  3033   000B10  EFC9  F005         	goto	i2l927
  3034   000B14                     i2l1396:
  3035   000B14  5003               	movf	fputc@fp^0,w,c
  3036   000B16  6ED9               	movwf	fsr2l,c
  3037   000B18  6ADA               	clrf	fsr2h,c
  3038   000B1A  0E09               	movlw	9
  3039   000B1C  26D9               	addwf	fsr2l,f,c
  3040   000B1E  50DE               	movf	postinc2,w,c
  3041   000B20  10DE               	iorwf	postinc2,w,c
  3042   000B22  B4D8               	btfsc	status,2,c
  3043   000B24  EF96  F005         	goto	i2u66_41
  3044   000B28  EF98  F005         	goto	i2u66_40
  3045   000B2C                     i2u66_41:
  3046   000B2C  EFB1  F005         	goto	i2l1400
  3047   000B30                     i2u66_40:
  3048   000B30  5003               	movf	fputc@fp^0,w,c
  3049   000B32  6ED9               	movwf	fsr2l,c
  3050   000B34  6ADA               	clrf	fsr2h,c
  3051   000B36  0E09               	movlw	9
  3052   000B38  26D9               	addwf	fsr2l,f,c
  3053   000B3A  5003               	movf	fputc@fp^0,w,c
  3054   000B3C  6EE1               	movwf	fsr1l,c
  3055   000B3E  6AE2               	clrf	fsr1h,c
  3056   000B40  0E02               	movlw	2
  3057   000B42  26E1               	addwf	fsr1l,f,c
  3058   000B44  50DE               	movf	postinc2,w,c
  3059   000B46  5CE6               	subwf	postinc1,w,c
  3060   000B48  50E6               	movf	postinc1,w,c
  3061   000B4A  0A80               	xorlw	128
  3062   000B4C  6E08               	movwf	(??_fputc+4)^0,c
  3063   000B4E  50DE               	movf	postinc2,w,c
  3064   000B50  0A80               	xorlw	128
  3065   000B52  5808               	subwfb	(??_fputc+4)^0,w,c
  3066   000B54  B0D8               	btfsc	status,0,c
  3067   000B56  EFAF  F005         	goto	i2u67_41
  3068   000B5A  EFB1  F005         	goto	i2u67_40
  3069   000B5E                     i2u67_41:
  3070   000B5E  EFC9  F005         	goto	i2l927
  3071   000B62                     i2u67_40:
  3072   000B62                     i2l1400:
  3073   000B62  5003               	movf	fputc@fp^0,w,c
  3074   000B64  6ED9               	movwf	fsr2l,c
  3075   000B66  6ADA               	clrf	fsr2h,c
  3076   000B68  0E02               	movlw	2
  3077   000B6A  26D9               	addwf	fsr2l,f,c
  3078   000B6C  50DF               	movf	indf2,w,c
  3079   000B6E  6E04               	movwf	??_fputc^0,c
  3080   000B70  5003               	movf	fputc@fp^0,w,c
  3081   000B72  6ED9               	movwf	fsr2l,c
  3082   000B74  6ADA               	clrf	fsr2h,c
  3083   000B76  50DF               	movf	indf2,w,c
  3084   000B78  2404               	addwf	??_fputc^0,w,c
  3085   000B7A  6ED9               	movwf	fsr2l,c
  3086   000B7C  6ADA               	clrf	fsr2h,c
  3087   000B7E  C001  FFDF         	movff	fputc@c,indf2
  3088   000B82  5003               	movf	fputc@fp^0,w,c
  3089   000B84  6ED9               	movwf	fsr2l,c
  3090   000B86  6ADA               	clrf	fsr2h,c
  3091   000B88  0E02               	movlw	2
  3092   000B8A  26D9               	addwf	fsr2l,f,c
  3093   000B8C  2ADE               	incf	postinc2,f,c
  3094   000B8E  0E00               	movlw	0
  3095   000B90  22DD               	addwfc	postdec2,f,c
  3096   000B92                     i2l927:
  3097   000B92  0012               	return		;funcret
  3098   000B94                     __end_of_fputc:
  3099                           	callstack 0
  3100                           
  3101 ;; *************** function _putch *****************
  3102 ;; Defined at:
  3103 ;;		line 7 in file "C:\Program Files\Microchip\xc8\v3.00\pic\sources\c99\common\putch.c"
  3104 ;; Parameters:    Size  Location     Type
  3105 ;;  c               1    wreg     unsigned char 
  3106 ;; Auto vars:     Size  Location     Type
  3107 ;;  c               1    0[COMRAM] unsigned char 
  3108 ;; Return value:  Size  Location     Type
  3109 ;;                  1    wreg      void 
  3110 ;; Registers used:
  3111 ;;		wreg
  3112 ;; Tracked objects:
  3113 ;;		On entry : 0/0
  3114 ;;		On exit  : 0/0
  3115 ;;		Unchanged: 0/0
  3116 ;; Data sizes:     COMRAM   BANK0   BANK1   BANK2   BANK3   BANK4   BANK5
  3117 ;;      Params:         0       0       0       0       0       0       0
  3118 ;;      Locals:         0       0       0       0       0       0       0
  3119 ;;      Temps:          0       0       0       0       0       0       0
  3120 ;;      Totals:         0       0       0       0       0       0       0
  3121 ;;Total ram usage:        0 bytes
  3122 ;; Hardware stack levels used: 1
  3123 ;; This function calls:
  3124 ;;		Nothing
  3125 ;; This function is called by:
  3126 ;;		_fputc
  3127 ;; This function uses a non-reentrant model
  3128 ;;
  3129                           
  3130                           	psect	text19
  3131   000E80                     __ptext19:
  3132                           	callstack 0
  3133   000E80                     _putch:
  3134                           	callstack 20
  3135   000E80  0012               	return		;funcret
  3136   000E82                     __end_of_putch:
  3137                           	callstack 0
  3138                           
  3139 ;; *************** function _abs *****************
  3140 ;; Defined at:
  3141 ;;		line 1 in file "C:\Program Files\Microchip\xc8\v3.00\pic\sources\c99\common\abs.c"
  3142 ;; Parameters:    Size  Location     Type
  3143 ;;  a               2    6[COMRAM] int 
  3144 ;; Auto vars:     Size  Location     Type
  3145 ;;		None
  3146 ;; Return value:  Size  Location     Type
  3147 ;;                  2    6[COMRAM] int 
  3148 ;; Registers used:
  3149 ;;		wreg, status,2, status,0
  3150 ;; Tracked objects:
  3151 ;;		On entry : 0/0
  3152 ;;		On exit  : 0/0
  3153 ;;		Unchanged: 0/0
  3154 ;; Data sizes:     COMRAM   BANK0   BANK1   BANK2   BANK3   BANK4   BANK5
  3155 ;;      Params:         2       0       0       0       0       0       0
  3156 ;;      Locals:         0       0       0       0       0       0       0
  3157 ;;      Temps:          2       0       0       0       0       0       0
  3158 ;;      Totals:         4       0       0       0       0       0       0
  3159 ;;Total ram usage:        4 bytes
  3160 ;; Hardware stack levels used: 1
  3161 ;; This function calls:
  3162 ;;		Nothing
  3163 ;; This function is called by:
  3164 ;;		_vfpfcnvrt
  3165 ;; This function uses a non-reentrant model
  3166 ;;
  3167                           
  3168                           	psect	text20
  3169   000D4C                     __ptext20:
  3170                           	callstack 0
  3171   000D4C                     _abs:
  3172                           	callstack 21
  3173   000D4C  BE08               	btfsc	(abs@a+1)^0,7,c
  3174   000D4E  EFAB  F006         	goto	i2u68_41
  3175   000D52  EFAD  F006         	goto	i2u68_40
  3176   000D56                     i2u68_41:
  3177   000D56  EFB3  F006         	goto	i2l912
  3178   000D5A                     i2u68_40:
  3179   000D5A  C007  F007         	movff	abs@a,?_abs
  3180   000D5E  C008  F008         	movff	abs@a+1,?_abs+1
  3181   000D62  EFBF  F006         	goto	i2l915
  3182   000D66                     i2l912:
  3183   000D66  C007  F009         	movff	abs@a,??_abs
  3184   000D6A  C008  F00A         	movff	abs@a+1,??_abs+1
  3185   000D6E  1E09               	comf	??_abs^0,f,c
  3186   000D70  1E0A               	comf	(??_abs+1)^0,f,c
  3187   000D72  4A09               	infsnz	??_abs^0,f,c
  3188   000D74  2A0A               	incf	(??_abs+1)^0,f,c
  3189   000D76  C009  F007         	movff	??_abs,?_abs
  3190   000D7A  C00A  F008         	movff	??_abs+1,?_abs+1
  3191   000D7E                     i2l915:
  3192   000D7E  0012               	return		;funcret
  3193   000D80                     __end_of_abs:
  3194                           	callstack 0
  3195                           
  3196 ;; *************** function ___awmod *****************
  3197 ;; Defined at:
  3198 ;;		line 7 in file "C:\Program Files\Microchip\xc8\v3.00\pic\sources\c99\common\awmod.c"
  3199 ;; Parameters:    Size  Location     Type
  3200 ;;  dividend        2    0[COMRAM] int 
  3201 ;;  divisor         2    2[COMRAM] int 
  3202 ;; Auto vars:     Size  Location     Type
  3203 ;;  sign            1    5[COMRAM] unsigned char 
  3204 ;;  counter         1    4[COMRAM] unsigned char 
  3205 ;; Return value:  Size  Location     Type
  3206 ;;                  2    0[COMRAM] int 
  3207 ;; Registers used:
  3208 ;;		wreg, status,2, status,0
  3209 ;; Tracked objects:
  3210 ;;		On entry : 0/0
  3211 ;;		On exit  : 0/0
  3212 ;;		Unchanged: 0/0
  3213 ;; Data sizes:     COMRAM   BANK0   BANK1   BANK2   BANK3   BANK4   BANK5
  3214 ;;      Params:         4       0       0       0       0       0       0
  3215 ;;      Locals:         2       0       0       0       0       0       0
  3216 ;;      Temps:          0       0       0       0       0       0       0
  3217 ;;      Totals:         6       0       0       0       0       0       0
  3218 ;;Total ram usage:        6 bytes
  3219 ;; Hardware stack levels used: 1
  3220 ;; This function calls:
  3221 ;;		Nothing
  3222 ;; This function is called by:
  3223 ;;		_vfpfcnvrt
  3224 ;; This function uses a non-reentrant model
  3225 ;;
  3226                           
  3227                           	psect	text21
  3228   000A3C                     __ptext21:
  3229                           	callstack 0
  3230   000A3C                     ___awmod:
  3231                           	callstack 21
  3232   000A3C  6A06               	clrf	___awmod@sign^0,c
  3233   000A3E  BE02               	btfsc	(___awmod@dividend+1)^0,7,c
  3234   000A40  EF26  F005         	goto	i2u58_40
  3235   000A44  EF24  F005         	goto	i2u58_41
  3236   000A48                     i2u58_41:
  3237   000A48  EF2C  F005         	goto	i2l1362
  3238   000A4C                     i2u58_40:
  3239   000A4C  6C01               	negf	___awmod@dividend^0,c
  3240   000A4E  1E02               	comf	(___awmod@dividend+1)^0,f,c
  3241   000A50  B0D8               	btfsc	status,0,c
  3242   000A52  2A02               	incf	(___awmod@dividend+1)^0,f,c
  3243   000A54  0E01               	movlw	1
  3244   000A56  6E06               	movwf	___awmod@sign^0,c
  3245   000A58                     i2l1362:
  3246   000A58  BE04               	btfsc	(___awmod@divisor+1)^0,7,c
  3247   000A5A  EF33  F005         	goto	i2u59_40
  3248   000A5E  EF31  F005         	goto	i2u59_41
  3249   000A62                     i2u59_41:
  3250   000A62  EF37  F005         	goto	i2l1366
  3251   000A66                     i2u59_40:
  3252   000A66  6C03               	negf	___awmod@divisor^0,c
  3253   000A68  1E04               	comf	(___awmod@divisor+1)^0,f,c
  3254   000A6A  B0D8               	btfsc	status,0,c
  3255   000A6C  2A04               	incf	(___awmod@divisor+1)^0,f,c
  3256   000A6E                     i2l1366:
  3257   000A6E  5003               	movf	___awmod@divisor^0,w,c
  3258   000A70  1004               	iorwf	(___awmod@divisor+1)^0,w,c
  3259   000A72  B4D8               	btfsc	status,2,c
  3260   000A74  EF3E  F005         	goto	i2u60_41
  3261   000A78  EF40  F005         	goto	i2u60_40
  3262   000A7C                     i2u60_41:
  3263   000A7C  EF64  F005         	goto	i2l1382
  3264   000A80                     i2u60_40:
  3265   000A80  0E01               	movlw	1
  3266   000A82  6E05               	movwf	___awmod@counter^0,c
  3267   000A84  EF48  F005         	goto	i2l1372
  3268   000A88                     i2l1370:
  3269   000A88  90D8               	bcf	status,0,c
  3270   000A8A  3603               	rlcf	___awmod@divisor^0,f,c
  3271   000A8C  3604               	rlcf	(___awmod@divisor+1)^0,f,c
  3272   000A8E  2A05               	incf	___awmod@counter^0,f,c
  3273   000A90                     i2l1372:
  3274   000A90  AE04               	btfss	(___awmod@divisor+1)^0,7,c
  3275   000A92  EF4D  F005         	goto	i2u61_41
  3276   000A96  EF4F  F005         	goto	i2u61_40
  3277   000A9A                     i2u61_41:
  3278   000A9A  EF44  F005         	goto	i2l1370
  3279   000A9E                     i2u61_40:
  3280   000A9E                     i2l1374:
  3281   000A9E  5003               	movf	___awmod@divisor^0,w,c
  3282   000AA0  5C01               	subwf	___awmod@dividend^0,w,c
  3283   000AA2  5004               	movf	(___awmod@divisor+1)^0,w,c
  3284   000AA4  5802               	subwfb	(___awmod@dividend+1)^0,w,c
  3285   000AA6  A0D8               	btfss	status,0,c
  3286   000AA8  EF58  F005         	goto	i2u62_41
  3287   000AAC  EF5A  F005         	goto	i2u62_40
  3288   000AB0                     i2u62_41:
  3289   000AB0  EF5E  F005         	goto	i2l1378
  3290   000AB4                     i2u62_40:
  3291   000AB4  5003               	movf	___awmod@divisor^0,w,c
  3292   000AB6  5E01               	subwf	___awmod@dividend^0,f,c
  3293   000AB8  5004               	movf	(___awmod@divisor+1)^0,w,c
  3294   000ABA  5A02               	subwfb	(___awmod@dividend+1)^0,f,c
  3295   000ABC                     i2l1378:
  3296   000ABC  90D8               	bcf	status,0,c
  3297   000ABE  3204               	rrcf	(___awmod@divisor+1)^0,f,c
  3298   000AC0  3203               	rrcf	___awmod@divisor^0,f,c
  3299   000AC2  2E05               	decfsz	___awmod@counter^0,f,c
  3300   000AC4  EF4F  F005         	goto	i2l1374
  3301   000AC8                     i2l1382:
  3302   000AC8  5006               	movf	___awmod@sign^0,w,c
  3303   000ACA  B4D8               	btfsc	status,2,c
  3304   000ACC  EF6A  F005         	goto	i2u63_41
  3305   000AD0  EF6C  F005         	goto	i2u63_40
  3306   000AD4                     i2u63_41:
  3307   000AD4  EF70  F005         	goto	i2l1386
  3308   000AD8                     i2u63_40:
  3309   000AD8  6C01               	negf	___awmod@dividend^0,c
  3310   000ADA  1E02               	comf	(___awmod@dividend+1)^0,f,c
  3311   000ADC  B0D8               	btfsc	status,0,c
  3312   000ADE  2A02               	incf	(___awmod@dividend+1)^0,f,c
  3313   000AE0                     i2l1386:
  3314   000AE0  C001  F001         	movff	___awmod@dividend,?___awmod
  3315   000AE4  C002  F002         	movff	___awmod@dividend+1,?___awmod+1
  3316   000AE8  0012               	return		;funcret
  3317   000AEA                     __end_of___awmod:
  3318                           	callstack 0
  3319                           
  3320 ;; *************** function ___awdiv *****************
  3321 ;; Defined at:
  3322 ;;		line 7 in file "C:\Program Files\Microchip\xc8\v3.00\pic\sources\c99\common\awdiv.c"
  3323 ;; Parameters:    Size  Location     Type
  3324 ;;  dividend        2    0[COMRAM] int 
  3325 ;;  divisor         2    2[COMRAM] int 
  3326 ;; Auto vars:     Size  Location     Type
  3327 ;;  quotient        2    6[COMRAM] int 
  3328 ;;  sign            1    5[COMRAM] unsigned char 
  3329 ;;  counter         1    4[COMRAM] unsigned char 
  3330 ;; Return value:  Size  Location     Type
  3331 ;;                  2    0[COMRAM] int 
  3332 ;; Registers used:
  3333 ;;		wreg, status,2, status,0
  3334 ;; Tracked objects:
  3335 ;;		On entry : 0/0
  3336 ;;		On exit  : 0/0
  3337 ;;		Unchanged: 0/0
  3338 ;; Data sizes:     COMRAM   BANK0   BANK1   BANK2   BANK3   BANK4   BANK5
  3339 ;;      Params:         4       0       0       0       0       0       0
  3340 ;;      Locals:         4       0       0       0       0       0       0
  3341 ;;      Temps:          0       0       0       0       0       0       0
  3342 ;;      Totals:         8       0       0       0       0       0       0
  3343 ;;Total ram usage:        8 bytes
  3344 ;; Hardware stack levels used: 1
  3345 ;; This function calls:
  3346 ;;		Nothing
  3347 ;; This function is called by:
  3348 ;;		_vfpfcnvrt
  3349 ;; This function uses a non-reentrant model
  3350 ;;
  3351                           
  3352                           	psect	text22
  3353   00097A                     __ptext22:
  3354                           	callstack 0
  3355   00097A                     ___awdiv:
  3356                           	callstack 21
  3357   00097A  6A06               	clrf	___awdiv@sign^0,c
  3358   00097C  BE04               	btfsc	(___awdiv@divisor+1)^0,7,c
  3359   00097E  EFC5  F004         	goto	i2u52_40
  3360   000982  EFC3  F004         	goto	i2u52_41
  3361   000986                     i2u52_41:
  3362   000986  EFCB  F004         	goto	i2l1318
  3363   00098A                     i2u52_40:
  3364   00098A  6C03               	negf	___awdiv@divisor^0,c
  3365   00098C  1E04               	comf	(___awdiv@divisor+1)^0,f,c
  3366   00098E  B0D8               	btfsc	status,0,c
  3367   000990  2A04               	incf	(___awdiv@divisor+1)^0,f,c
  3368   000992  0E01               	movlw	1
  3369   000994  6E06               	movwf	___awdiv@sign^0,c
  3370   000996                     i2l1318:
  3371   000996  BE02               	btfsc	(___awdiv@dividend+1)^0,7,c
  3372   000998  EFD2  F004         	goto	i2u53_40
  3373   00099C  EFD0  F004         	goto	i2u53_41
  3374   0009A0                     i2u53_41:
  3375   0009A0  EFD8  F004         	goto	i2l1324
  3376   0009A4                     i2u53_40:
  3377   0009A4  6C01               	negf	___awdiv@dividend^0,c
  3378   0009A6  1E02               	comf	(___awdiv@dividend+1)^0,f,c
  3379   0009A8  B0D8               	btfsc	status,0,c
  3380   0009AA  2A02               	incf	(___awdiv@dividend+1)^0,f,c
  3381   0009AC  0E01               	movlw	1
  3382   0009AE  1A06               	xorwf	___awdiv@sign^0,f,c
  3383   0009B0                     i2l1324:
  3384   0009B0  0E00               	movlw	0
  3385   0009B2  6E08               	movwf	(___awdiv@quotient+1)^0,c
  3386   0009B4  0E00               	movlw	0
  3387   0009B6  6E07               	movwf	___awdiv@quotient^0,c
  3388   0009B8  5003               	movf	___awdiv@divisor^0,w,c
  3389   0009BA  1004               	iorwf	(___awdiv@divisor+1)^0,w,c
  3390   0009BC  B4D8               	btfsc	status,2,c
  3391   0009BE  EFE3  F004         	goto	i2u54_41
  3392   0009C2  EFE5  F004         	goto	i2u54_40
  3393   0009C6                     i2u54_41:
  3394   0009C6  EF0D  F005         	goto	i2l1346
  3395   0009CA                     i2u54_40:
  3396   0009CA  0E01               	movlw	1
  3397   0009CC  6E05               	movwf	___awdiv@counter^0,c
  3398   0009CE  EFED  F004         	goto	i2l1332
  3399   0009D2                     i2l1330:
  3400   0009D2  90D8               	bcf	status,0,c
  3401   0009D4  3603               	rlcf	___awdiv@divisor^0,f,c
  3402   0009D6  3604               	rlcf	(___awdiv@divisor+1)^0,f,c
  3403   0009D8  2A05               	incf	___awdiv@counter^0,f,c
  3404   0009DA                     i2l1332:
  3405   0009DA  AE04               	btfss	(___awdiv@divisor+1)^0,7,c
  3406   0009DC  EFF2  F004         	goto	i2u55_41
  3407   0009E0  EFF4  F004         	goto	i2u55_40
  3408   0009E4                     i2u55_41:
  3409   0009E4  EFE9  F004         	goto	i2l1330
  3410   0009E8                     i2u55_40:
  3411   0009E8                     i2l1334:
  3412   0009E8  90D8               	bcf	status,0,c
  3413   0009EA  3607               	rlcf	___awdiv@quotient^0,f,c
  3414   0009EC  3608               	rlcf	(___awdiv@quotient+1)^0,f,c
  3415   0009EE  5003               	movf	___awdiv@divisor^0,w,c
  3416   0009F0  5C01               	subwf	___awdiv@dividend^0,w,c
  3417   0009F2  5004               	movf	(___awdiv@divisor+1)^0,w,c
  3418   0009F4  5802               	subwfb	(___awdiv@dividend+1)^0,w,c
  3419   0009F6  A0D8               	btfss	status,0,c
  3420   0009F8  EF00  F005         	goto	i2u56_41
  3421   0009FC  EF02  F005         	goto	i2u56_40
  3422   000A00                     i2u56_41:
  3423   000A00  EF07  F005         	goto	i2l1342
  3424   000A04                     i2u56_40:
  3425   000A04  5003               	movf	___awdiv@divisor^0,w,c
  3426   000A06  5E01               	subwf	___awdiv@dividend^0,f,c
  3427   000A08  5004               	movf	(___awdiv@divisor+1)^0,w,c
  3428   000A0A  5A02               	subwfb	(___awdiv@dividend+1)^0,f,c
  3429   000A0C  8007               	bsf	___awdiv@quotient^0,0,c
  3430   000A0E                     i2l1342:
  3431   000A0E  90D8               	bcf	status,0,c
  3432   000A10  3204               	rrcf	(___awdiv@divisor+1)^0,f,c
  3433   000A12  3203               	rrcf	___awdiv@divisor^0,f,c
  3434   000A14  2E05               	decfsz	___awdiv@counter^0,f,c
  3435   000A16  EFF4  F004         	goto	i2l1334
  3436   000A1A                     i2l1346:
  3437   000A1A  5006               	movf	___awdiv@sign^0,w,c
  3438   000A1C  B4D8               	btfsc	status,2,c
  3439   000A1E  EF13  F005         	goto	i2u57_41
  3440   000A22  EF15  F005         	goto	i2u57_40
  3441   000A26                     i2u57_41:
  3442   000A26  EF19  F005         	goto	i2l1350
  3443   000A2A                     i2u57_40:
  3444   000A2A  6C07               	negf	___awdiv@quotient^0,c
  3445   000A2C  1E08               	comf	(___awdiv@quotient+1)^0,f,c
  3446   000A2E  B0D8               	btfsc	status,0,c
  3447   000A30  2A08               	incf	(___awdiv@quotient+1)^0,f,c
  3448   000A32                     i2l1350:
  3449   000A32  C007  F001         	movff	___awdiv@quotient,?___awdiv
  3450   000A36  C008  F002         	movff	___awdiv@quotient+1,?___awdiv+1
  3451   000A3A  0012               	return		;funcret
  3452   000A3C                     __end_of___awdiv:
  3453                           	callstack 0
  3454                           
  3455                           	psect	rparam
  3456   000001                     ___rparam_used  equ	1
  3457   000000                     ___param_bank   equ	0
  3458   000000                     __Lparam        equ	__Lrparam
  3459   000000                     __Hparam        equ	__Hrparam
  3460                           
  3461                           	psect	temp
  3462   000066                     btemp:
  3463                           	callstack 0
  3464   000066                     	ds	1
  3465   000066                     int$flags       set	btemp
  3466   000067                     wtemp8          set	btemp+1
  3467   000067                     ttemp5          set	btemp+1
  3468   00006A                     ttemp6          set	btemp+4
  3469   00006E                     ttemp7          set	btemp+8
  3470                           
  3471                           	psect	idloc
  3472                           
  3473                           ;Config register IDLOC0 @ 0x200000
  3474                           ;	unspecified, using default values
  3475   200000                     	org	2097152
  3476   200000  FF                 	db	255
  3477                           
  3478                           ;Config register IDLOC1 @ 0x200001
  3479                           ;	unspecified, using default values
  3480   200001                     	org	2097153
  3481   200001  FF                 	db	255
  3482                           
  3483                           ;Config register IDLOC2 @ 0x200002
  3484                           ;	unspecified, using default values
  3485   200002                     	org	2097154
  3486   200002  FF                 	db	255
  3487                           
  3488                           ;Config register IDLOC3 @ 0x200003
  3489                           ;	unspecified, using default values
  3490   200003                     	org	2097155
  3491   200003  FF                 	db	255
  3492                           
  3493                           ;Config register IDLOC4 @ 0x200004
  3494                           ;	unspecified, using default values
  3495   200004                     	org	2097156
  3496   200004  FF                 	db	255
  3497                           
  3498                           ;Config register IDLOC5 @ 0x200005
  3499                           ;	unspecified, using default values
  3500   200005                     	org	2097157
  3501   200005  FF                 	db	255
  3502                           
  3503                           ;Config register IDLOC6 @ 0x200006
  3504                           ;	unspecified, using default values
  3505   200006                     	org	2097158
  3506   200006  FF                 	db	255
  3507                           
  3508                           ;Config register IDLOC7 @ 0x200007
  3509                           ;	unspecified, using default values
  3510   200007                     	org	2097159
  3511   200007  FF                 	db	255
  3512                           
  3513                           	psect	config
  3514                           
  3515                           ; Padding undefined space
  3516   300000                     	org	3145728
  3517   300000  FF                 	db	255
  3518                           
  3519                           ;Config register CONFIG1H @ 0x300001
  3520                           ;	Oscillator Selection bits
  3521                           ;	OSC = INTIO67, Internal oscillator block, port function on RA6 and RA7
  3522                           ;	Fail-Safe Clock Monitor Enable bit
  3523                           ;	FCMEN = OFF, Fail-Safe Clock Monitor disabled
  3524                           ;	Internal/External Oscillator Switchover bit
  3525                           ;	IESO = ON, Oscillator Switchover mode enabled
  3526   300001                     	org	3145729
  3527   300001  88                 	db	136
  3528                           
  3529                           ;Config register CONFIG2L @ 0x300002
  3530                           ;	Power-up Timer Enable bit
  3531                           ;	PWRT = OFF, PWRT disabled
  3532                           ;	Brown-out Reset Enable bits
  3533                           ;	BOREN = SBORDIS, Brown-out Reset enabled in hardware only (SBOREN is disabled)
  3534                           ;	Brown Out Reset Voltage bits
  3535                           ;	BORV = 3, Minimum setting
  3536   300002                     	org	3145730
  3537   300002  1F                 	db	31
  3538                           
  3539                           ;Config register CONFIG2H @ 0x300003
  3540                           ;	Watchdog Timer Enable bit
  3541                           ;	WDT = OFF, WDT disabled (control is placed on the SWDTEN bit)
  3542                           ;	Watchdog Timer Postscale Select bits
  3543                           ;	WDTPS = 1, 1:1
  3544   300003                     	org	3145731
  3545   300003  00                 	db	0
  3546                           
  3547                           ; Padding undefined space
  3548   300004                     	org	3145732
  3549   300004  FF                 	db	255
  3550                           
  3551                           ;Config register CONFIG3H @ 0x300005
  3552                           ;	CCP2 MUX bit
  3553                           ;	CCP2MX = PORTC, CCP2 input/output is multiplexed with RC1
  3554                           ;	PORTB A/D Enable bit
  3555                           ;	PBADEN = ON, PORTB<4:0> pins are configured as analog input channels on Reset
  3556                           ;	Low-Power Timer1 Oscillator Enable bit
  3557                           ;	LPT1OSC = OFF, Timer1 configured for higher power operation
  3558                           ;	MCLR Pin Enable bit
  3559                           ;	MCLRE = ON, MCLR pin enabled; RE3 input pin disabled
  3560   300005                     	org	3145733
  3561   300005  83                 	db	131
  3562                           
  3563                           ;Config register CONFIG4L @ 0x300006
  3564                           ;	Stack Full/Underflow Reset Enable bit
  3565                           ;	STVREN = ON, Stack full/underflow will cause Reset
  3566                           ;	Single-Supply ICSP Enable bit
  3567                           ;	LVP = OFF, Single-Supply ICSP disabled
  3568                           ;	Extended Instruction Set Enable bit
  3569                           ;	XINST = OFF, Instruction set extension and Indexed Addressing mode disabled (Legacy mo
      +                          de)
  3570                           ;	Background Debugger Enable bit
  3571                           ;	DEBUG = 0x1, unprogrammed default
  3572   300006                     	org	3145734
  3573   300006  81                 	db	129
  3574                           
  3575                           ; Padding undefined space
  3576   300007                     	org	3145735
  3577   300007  FF                 	db	255
  3578                           
  3579                           ;Config register CONFIG5L @ 0x300008
  3580                           ;	Code Protection bit
  3581                           ;	CP0 = OFF, Block 0 (000800-001FFFh) not code-protected
  3582                           ;	Code Protection bit
  3583                           ;	CP1 = OFF, Block 1 (002000-003FFFh) not code-protected
  3584                           ;	Code Protection bit
  3585                           ;	CP2 = OFF, Block 2 (004000-005FFFh) not code-protected
  3586                           ;	Code Protection bit
  3587                           ;	CP3 = OFF, Block 3 (006000-007FFFh) not code-protected
  3588   300008                     	org	3145736
  3589   300008  0F                 	db	15
  3590                           
  3591                           ;Config register CONFIG5H @ 0x300009
  3592                           ;	Boot Block Code Protection bit
  3593                           ;	CPB = OFF, Boot block (000000-0007FFh) not code-protected
  3594                           ;	Data EEPROM Code Protection bit
  3595                           ;	CPD = OFF, Data EEPROM not code-protected
  3596   300009                     	org	3145737
  3597   300009  C0                 	db	192
  3598                           
  3599                           ;Config register CONFIG6L @ 0x30000A
  3600                           ;	Write Protection bit
  3601                           ;	WRT0 = OFF, Block 0 (000800-001FFFh) not write-protected
  3602                           ;	Write Protection bit
  3603                           ;	WRT1 = OFF, Block 1 (002000-003FFFh) not write-protected
  3604                           ;	Write Protection bit
  3605                           ;	WRT2 = OFF, Block 2 (004000-005FFFh) not write-protected
  3606                           ;	Write Protection bit
  3607                           ;	WRT3 = OFF, Block 3 (006000-007FFFh) not write-protected
  3608   30000A                     	org	3145738
  3609   30000A  0F                 	db	15
  3610                           
  3611                           ;Config register CONFIG6H @ 0x30000B
  3612                           ;	Configuration Register Write Protection bit
  3613                           ;	WRTC = OFF, Configuration registers (300000-3000FFh) not write-protected
  3614                           ;	Boot Block Write Protection bit
  3615                           ;	WRTB = OFF, Boot block (000000-0007FFh) not write-protected
  3616                           ;	Data EEPROM Write Protection bit
  3617                           ;	WRTD = OFF, Data EEPROM not write-protected
  3618   30000B                     	org	3145739
  3619   30000B  E0                 	db	224
  3620                           
  3621                           ;Config register CONFIG7L @ 0x30000C
  3622                           ;	Table Read Protection bit
  3623                           ;	EBTR0 = OFF, Block 0 (000800-001FFFh) not protected from table reads executed in other
      +                           blocks
  3624                           ;	Table Read Protection bit
  3625                           ;	EBTR1 = OFF, Block 1 (002000-003FFFh) not protected from table reads executed in other
      +                           blocks
  3626                           ;	Table Read Protection bit
  3627                           ;	EBTR2 = OFF, Block 2 (004000-005FFFh) not protected from table reads executed in other
      +                           blocks
  3628                           ;	Table Read Protection bit
  3629                           ;	EBTR3 = OFF, Block 3 (006000-007FFFh) not protected from table reads executed in other
      +                           blocks
  3630   30000C                     	org	3145740
  3631   30000C  0F                 	db	15
  3632                           
  3633                           ;Config register CONFIG7H @ 0x30000D
  3634                           ;	Boot Block Table Read Protection bit
  3635                           ;	EBTRB = OFF, Boot block (000000-0007FFh) not protected from table reads executed in ot
      +                          her blocks
  3636   30000D                     	org	3145741
  3637   30000D  40                 	db	64
  3638                           tosu	equ	0xFFF
  3639                           tosh	equ	0xFFE
  3640                           tosl	equ	0xFFD
  3641                           stkptr	equ	0xFFC
  3642                           pclatu	equ	0xFFB
  3643                           pclath	equ	0xFFA
  3644                           pcl	equ	0xFF9
  3645                           tblptru	equ	0xFF8
  3646                           tblptrh	equ	0xFF7
  3647                           tblptrl	equ	0xFF6
  3648                           tablat	equ	0xFF5
  3649                           prodh	equ	0xFF4
  3650                           prodl	equ	0xFF3
  3651                           indf0	equ	0xFEF
  3652                           postinc0	equ	0xFEE
  3653                           postdec0	equ	0xFED
  3654                           preinc0	equ	0xFEC
  3655                           plusw0	equ	0xFEB
  3656                           fsr0h	equ	0xFEA
  3657                           fsr0l	equ	0xFE9
  3658                           wreg	equ	0xFE8
  3659                           indf1	equ	0xFE7
  3660                           postinc1	equ	0xFE6
  3661                           postdec1	equ	0xFE5
  3662                           preinc1	equ	0xFE4
  3663                           plusw1	equ	0xFE3
  3664                           fsr1h	equ	0xFE2
  3665                           fsr1l	equ	0xFE1
  3666                           bsr	equ	0xFE0
  3667                           indf2	equ	0xFDF
  3668                           postinc2	equ	0xFDE
  3669                           postdec2	equ	0xFDD
  3670                           preinc2	equ	0xFDC
  3671                           plusw2	equ	0xFDB
  3672                           fsr2h	equ	0xFDA
  3673                           fsr2l	equ	0xFD9
  3674                           status	equ	0xFD8

Data Sizes:
    Strings     5
    Constant    0
    Data        0
    BSS         61
    Persistent  0
    Stack       0

Auto Spaces:
    Space          Size  Autos    Used
    COMRAM          126     72     101
    BANK0           128     14      46
    BANK1           256      0       0
    BANK2           256      0       0
    BANK3           256      0       0
    BANK4           256      0       0
    BANK5           244      0       0

Pointer List with Targets:

    f$.$buffer	PTR unsigned char  size(1) Largest target is 10
		 -> Hi_ISR@str_buf(COMRAM[10]), 

    f$.$source	PTR const unsigned char  size(2) Largest target is 0

    fputc@fp	PTR struct _IO_FILE size(1) Largest target is 11
		 -> sprintf@f(COMRAM[11]), 

    fputc@fp$.$buffer	PTR unsigned char  size(1) Largest target is 10
		 -> Hi_ISR@str_buf(COMRAM[10]), 

    fputc@fp$.$source	PTR const unsigned char  size(2) Largest target is 0

    S1398$buffer	PTR unsigned char  size(1) Largest target is 10
		 -> Hi_ISR@str_buf(COMRAM[10]), 

    S1398$source	PTR const unsigned char  size(2) Largest target is 0

    sp__GetString	PTR unsigned char  size(1) Largest target is 20
		 -> mystring(COMRAM[20]), 

    sprintf@ap	PTR void [1] size(1) Largest target is 2
		 -> ?_sprintf(COMRAM[2]), 

    sprintf@fmt	PTR const unsigned char  size(1) Largest target is 3
		 -> STR_1(CODE[3]), 

    sprintf@s	PTR unsigned char  size(1) Largest target is 10
		 -> Hi_ISR@str_buf(COMRAM[10]), 

    UART_Write_Text@text	PTR unsigned char  size(2) Largest target is 10
		 -> Hi_ISR@str_buf(COMRAM[10]), STR_2(CODE[2]), 

    vfpfcnvrt@ap	PTR PTR void  size(1) Largest target is 1
		 -> sprintf@ap(COMRAM[1]), 

    vfpfcnvrt@cp	PTR unsigned char  size(1) Largest target is 3
		 -> STR_1(CODE[3]), 

    vfpfcnvrt@fmt	PTR PTR unsigned char  size(1) Largest target is 1
		 -> vfprintf@cfmt(COMRAM[1]), 

    vfpfcnvrt@fp	PTR struct _IO_FILE size(1) Largest target is 11
		 -> sprintf@f(COMRAM[11]), 

    vfprintf@ap	PTR PTR void  size(1) Largest target is 1
		 -> sprintf@ap(COMRAM[1]), 

    vfprintf@cfmt	PTR unsigned char  size(1) Largest target is 3
		 -> STR_1(CODE[3]), 

    vfprintf@fmt	PTR const unsigned char  size(1) Largest target is 3
		 -> STR_1(CODE[3]), 

    vfprintf@fp	PTR struct _IO_FILE size(1) Largest target is 11
		 -> sprintf@f(COMRAM[11]), 


Critical Paths under _main in COMRAM

    None.

Critical Paths under _Lo_ISR in COMRAM

    None.

Critical Paths under _Hi_ISR in COMRAM

    _Hi_ISR->_sprintf
    i2_UART_Write_Text->i2_UART_Write
    _sprintf->_vfprintf
    _vfprintf->_vfpfcnvrt
    _vfpfcnvrt->_abs
    _abs->___awmod

Critical Paths under _main in BANK0

    _main->_UART_Write_Text
    _UART_Write_Text->_UART_Write

Critical Paths under _Lo_ISR in BANK0

    _Lo_ISR->_MyusartRead
    _MyusartRead->i1_UART_Write

Critical Paths under _Hi_ISR in BANK0

    None.

Critical Paths under _main in BANK1

    None.

Critical Paths under _Lo_ISR in BANK1

    None.

Critical Paths under _Hi_ISR in BANK1

    None.

Critical Paths under _main in BANK2

    None.

Critical Paths under _Lo_ISR in BANK2

    None.

Critical Paths under _Hi_ISR in BANK2

    None.

Critical Paths under _main in BANK3

    None.

Critical Paths under _Lo_ISR in BANK3

    None.

Critical Paths under _Hi_ISR in BANK3

    None.

Critical Paths under _main in BANK4

    None.

Critical Paths under _Lo_ISR in BANK4

    None.

Critical Paths under _Hi_ISR in BANK4

    None.

Critical Paths under _main in BANK5

    None.

Critical Paths under _Lo_ISR in BANK5

    None.

Critical Paths under _Hi_ISR in BANK5

    None.

Call Graph Tables:

 ---------------------------------------------------------------------------------
 (Depth) Function   	        Calls       Base Space   Used Autos Params    Refs
 ---------------------------------------------------------------------------------
 (0) _main                                                 0     0      0     120
                  _SYSTEM_Initialize
                    _UART_Write_Text
 ---------------------------------------------------------------------------------
 (1) _UART_Write_Text                                      6     4      2     120
                                              8 BANK0      6     4      2
                         _UART_Write
 ---------------------------------------------------------------------------------
 (2) _UART_Write                                           1     1      0      29
                                              7 BANK0      1     1      0
 ---------------------------------------------------------------------------------
 (1) _SYSTEM_Initialize                                    0     0      0       0
                     _ADC_Initialize
                    _CCP1_Initialize
               _INTERRUPT_Initialize
              _OSCILLATOR_Initialize
                    _UART_Initialize
 ---------------------------------------------------------------------------------
 (2) _UART_Initialize                                      0     0      0       0
 ---------------------------------------------------------------------------------
 (2) _OSCILLATOR_Initialize                                0     0      0       0
 ---------------------------------------------------------------------------------
 (2) _INTERRUPT_Initialize                                 0     0      0       0
 ---------------------------------------------------------------------------------
 (2) _CCP1_Initialize                                      0     0      0       0
 ---------------------------------------------------------------------------------
 (2) _ADC_Initialize                                       0     0      0       0
 ---------------------------------------------------------------------------------
 Estimated maximum stack depth 2
 ---------------------------------------------------------------------------------
 (Depth) Function   	        Calls       Base Space   Used Autos Params    Refs
 ---------------------------------------------------------------------------------
 (3) _Lo_ISR                                               5     5      0      74
                                              2 BANK0      5     5      0
                        _MyusartRead
 ---------------------------------------------------------------------------------
 (4) _MyusartRead                                          1     1      0      74
                                              1 BANK0      1     1      0
                       i1_UART_Write
 ---------------------------------------------------------------------------------
 (5) i1_UART_Write                                         1     1      0      29
                                              0 BANK0      1     1      0
 ---------------------------------------------------------------------------------
 Estimated maximum stack depth 5
 ---------------------------------------------------------------------------------
 (Depth) Function   	        Calls       Base Space   Used Autos Params    Refs
 ---------------------------------------------------------------------------------
 (6) _Hi_ISR                                              31    31      0    2170
                                             41 COMRAM    31    31      0
                            _sprintf
                       i2_UART_Write
                  i2_UART_Write_Text
 ---------------------------------------------------------------------------------
 (7) i2_UART_Write_Text                                    6     4      2     120
                                              1 COMRAM     6     4      2
                       i2_UART_Write
 ---------------------------------------------------------------------------------
 (8) i2_UART_Write                                         1     1      0      29
                                              0 COMRAM     1     1      0
 ---------------------------------------------------------------------------------
 (7) _sprintf                                             18    14      4    1760
                                             25 COMRAM    16    12      4
                           _vfprintf
 ---------------------------------------------------------------------------------
 (8) _vfprintf                                             4     1      3    1559
                                             21 COMRAM     4     1      3
                          _vfpfcnvrt
 ---------------------------------------------------------------------------------
 (9) _vfpfcnvrt                                           11     8      3    1434
                                             10 COMRAM    11     8      3
                            ___awdiv
                            ___awmod
                                _abs
                              _fputc
 ---------------------------------------------------------------------------------
 (10) _fputc                                               8     5      3     230
                                              0 COMRAM     8     5      3
                              _putch
 ---------------------------------------------------------------------------------
 (11) _putch                                               1     1      0       0
 ---------------------------------------------------------------------------------
 (10) _abs                                                 4     2      2      67
                                              6 COMRAM     4     2      2
                            ___awmod (ARG)
 ---------------------------------------------------------------------------------
 (10) ___awmod                                             6     2      4     298
                                              0 COMRAM     6     2      4
 ---------------------------------------------------------------------------------
 (10) ___awdiv                                             8     4      4     302
                                              0 COMRAM     8     4      4
 ---------------------------------------------------------------------------------
 Estimated maximum stack depth 11
 ---------------------------------------------------------------------------------

 Call Graph Graphs:

 _main (ROOT)
   _SYSTEM_Initialize
     _ADC_Initialize
     _CCP1_Initialize
     _INTERRUPT_Initialize
     _OSCILLATOR_Initialize
     _UART_Initialize
   _UART_Write_Text
     _UART_Write

 _Lo_ISR (ROOT)
   _MyusartRead
     i1_UART_Write

 _Hi_ISR (ROOT)
   _sprintf
     _vfprintf
       _vfpfcnvrt
         ___awdiv
         ___awmod
         _abs
           ___awmod (ARG)
         _fputc
           _putch
   i2_UART_Write
   i2_UART_Write_Text
     i2_UART_Write

Address spaces:
Name               Size   Autos  Total    Usage
BIGRAM            1523      0       0      0.0%
BITBANK4           256      0       0      0.0%
BANK4              256      0       0      0.0%
BITBANK3           256      0       0      0.0%
BANK3              256      0       0      0.0%
BITBANK2           256      0       0      0.0%
BANK2              256      0       0      0.0%
BITBANK1           256      0       0      0.0%
BANK1              256      0       0      0.0%
BITBANK5           244      0       0      0.0%
BANK5              244      0       0      0.0%
BITBANK0           128      0       0      0.0%
BANK0              128     14      46     35.9%
BITCOMRAM          126      0       0      0.0%
COMRAM             126     72     101     80.2%
BITBIGSFR_1h        38      0       0      0.0%
BITBIGSFRh          26      0       0      0.0%
BITBIGSFR_1llh      12      0       0      0.0%
BITBIGSFR_5h        11      0       0      0.0%
BITBIGSFR_2          6      0       0      0.0%
BITBIGSFR_4          3      0       0      0.0%
BITBIGSFR_3          3      0       0      0.0%
BITBIGSFR_1lh        1      0       0      0.0%
BITBIGSFR_5l         1      0       0      0.0%
BITBIGSFRl           1      0       0      0.0%
STACK                0      0       0      0.0%
DATA                 0      0     147      0.0%


Microchip Technology PIC18 Macro Assembler V3.00 build 20241204225717 
Symbol Table                                                                                   Thu Nov 27 03:44:20 2025

                           l22 0E76                             l19 0E3A                             l61 0E0C  
                           l55 0DF4                             l58 0DFA                             l67 0C16  
                           l93 0E7E                   ___awdiv@sign 0006                             bsr 0FE0  
      __end_of_CCP1_Initialize 0E70                            l104 0E6E                            l121 0E62  
                          l180 0DA6                            l181 0DA6                            u830 0BD0  
                          u840 0C06                            u850 0C16                            u851 0C12  
                          u837 0BC6                            u790 0E08                            u791 0E04  
                          u847 0BFC                            _abs 0D4C                   ___awmod@sign 0006  
                          wreg 0FE8                           ?_abs 0007                           l1500 0E60  
                         l1502 0DFA                           l1504 0E08                           l1530 0E36  
                         l1460 0E78                           l1524 0E26                           l1532 0B94  
                         l1470 0DE6                           l1462 0DD4                           l1526 0E2E  
                         l1534 0BA2                           l1480 0DF0                           l1472 0DE8  
                         l1464 0DDE                           l1528 0E32                           l1536 0BD4  
                         l1640 0D84                           l1490 0E6C                           l1458 0E70  
                         l1482 0DF2                           l1474 0DEA                           l1466 0DE2  
                         l1538 0BDA                           l1650 0D92                           l1642 0D86  
                         l1492 0E52                           l1484 0E64                           l1476 0DEC  
                         l1468 0DE4                           l1652 0D94                           l1644 0D8A  
                         l1494 0E54                           l1486 0E66                           l1478 0DEE  
                         l1646 0D8E                           l1638 0D80                           l1496 0E58  
                         l1488 0E6A                           l1648 0D90                           l1498 0E5E  
                         _ADFM 7E07                           STR_1 0601                           STR_2 0604  
                         _CREN 7D5C                           _LATD 0F8C                           _RCIF 7CF5  
                         i1l61 0E24                           i1l58 0E12                           i1l76 0CD8  
                         i2l61 0E50                           i1l86 0054                           i2l58 0E3E  
                         i2l67 0C94                           abs@a 0007                           _dbuf 0080  
                         _main 0D80                           _prec 004B                           fsr1h 0FE2  
                         fsr2h 0FDA                           indf1 0FE7                           indf2 0FDF  
                         fsr1l 0FE1                           fsr2l 0FD9                           btemp 0066  
                         start 006C                MyusartRead@data 00A1                   ___param_bank 0000  
      __end_of_UART_Write_Text 0C18                          ??_abs 0009               ?_UART_Initialize 0001  
__end_of_OSCILLATOR_Initialize 0E78                          ?_main 0001                __end_of___awdiv 0A3C  
              __end_of___awmod 0AEA                ___awdiv@divisor 0003                          _IRCF0 7E9C  
                        _IRCF1 7E9D                          _IRCF2 7E9E                          i2l162 06D4  
                        i2l172 078E                          i2l156 0660                          i2l157 079C  
                        i2l430 0AE8                          i2l175 079E                          i2l417 0A3A  
                        i2l902 0978                          i2l912 0D66                          i2l915 0D7E  
                        i2l908 0D16                          i2l927 0B92                          i2l864 0D4A  
                        i2l938 0E80                ___awdiv@counter 0005                          _RCREG 0FAE  
                 vfpfcnvrt@fmt 000C                          _SPBRG 0FAF                          _TRISA 0F92  
                        _TRISD 0F95                          _TXREG 0FAD                    ?_UART_Write 0001  
                        _flags 0051                          _fputc 0AEA                          _width 0049  
                        _putch 0E80                          tablat 0FF5                          ttemp5 0067  
                        ttemp6 006A                          ttemp7 006E                          status 0FD8  
                        wtemp8 0067                __end_of_sprintf 0D4C                __initialization 0DAE  
                 __end_of_main 0DAE                         ??_main 00AE               ?_CCP1_Initialize 0001  
                __activetblptr 0002                         _ADCON1 0FC1                         ?_fputc 0001  
                       _ADRESH 0FC4                         _ADRESL 0FC3               ___awdiv@dividend 0001  
                       ?_putch 0001                         i1l1516 0E12                         i1l1540 0C96  
                       i1l1518 0E20                         i1l1550 0CD0                         i1l1542 0C9A  
                       i1l1544 0CB6                         i1l1546 0CC2                         i1l1548 0CC6  
                       i1l1580 0050                         i1l1574 002E                         i1l1576 003C  
                       i1l1578 004A                         i2l1310 097A                         i2l1320 09A4  
                       i2l1312 097C                         i2l1400 0B62                         i2l1330 09D2  
                       i2l1322 09AC                         i2l1314 098A                         i2l1410 07E4  
                       i2l1340 0A0C                         i2l1332 09DA                         i2l1324 09B0  
                       i2l1316 0992                         i2l1404 0D4C                         i2l1420 0822  
                       i2l1412 07EC                         i2l1350 0A32                         i2l1342 0A0E  
                       i2l1334 09E8                         i2l1326 09B8                         i2l1318 0996  
                       i2l1406 0D5A                         i2l1430 08A8                         i2l1422 083E  
                       i2l1414 07F8                         i2l1510 0CF2                         i2l1344 0A14  
                       i2l1336 09EE                         i2l1328 09CA                         i2l1360 0A54  
                       i2l1440 0906                         i2l1432 08C4                         i2l1424 0856  
                       i2l1416 07FC                         i2l1408 07C2                         i2l1512 0D0E  
                       i2l1520 0E3E                         i2l1600 067A                         i2l1338 0A04  
                       i2l1346 0A1A                         i2l1370 0A88                         i2l1362 0A58  
                       i2l1354 0A3C                         i2l1442 0918                         i2l1434 08D6  
                       i2l1426 0860                         i2l1418 0806                         i2l1506 0CDA  
                       i2l1522 0E4C                         i2l1610 06CC                         i2l1602 0690  
                       i2l1348 0A2A                         i2l1380 0AC2                         i2l1372 0A90  
                       i2l1364 0A66                         i2l1356 0A3E                         i2l1444 0932  
                       i2l1436 08E6                         i2l1428 0878                         i2l1452 0956  
                       i2l1508 0CE2                         i2l1620 0714                         i2l1612 06E0  
                       i2l1604 0698                         i2l1374 0A9E                         i2l1382 0AC8  
                       i2l1366 0A6E                         i2l1358 0A4C                         i2l1390 0AEA  
                       i2l1438 08F6                         i2l1446 0934                         i2l1630 074E  
                       i2l1622 071A                         i2l1614 06E6                         i2l1606 06AA  
                       i2l1384 0AD8                         i2l1376 0AB4                         i2l1368 0A80  
                       i2l1392 0AFA                         i2l1448 094A                         i2l1560 0D30  
                       i2l1632 0752                         i2l1624 071E                         i2l1616 06EA  
                       i2l1608 06C0                         i2l1386 0AE0                         i2l1378 0ABC  
                       i2l1394 0B0A                         i2l1562 0D40                         i2l1554 0D18  
                       i2l1570 0C54                         i2l1634 0770                         i2l1626 073C  
                       i2l1618 0708                         i2l1396 0B14                         i2l1556 0D20  
                       i2l1572 0C58                         i2l1636 0784                         i2l1628 0748  
                       i2l1398 0B30                         i2l1558 0D28                         i2l1566 0C18  
                       i2l1568 0C24                         i2l1592 0640                         i2l1584 062A  
                       i2l1594 0644                         i2l1586 0638                         i2l1596 066E  
                       i2l1598 0676                  vfpfcnvrt@done 000F                         _Hi_ISR 0008  
                       _Lo_ISR 0018                   vfprintf@cfmt 0019                      ??___awdiv 0005  
                    ??___awmod 0005               ?_UART_Write_Text 00A8                         _lenStr 004F  
                       clear_0 0DB4                         clear_1 0DC0               ___awdiv@quotient 0007  
              ___awmod@divisor 0003                         isa$std 0001                ___awmod@counter 0005  
                       fputc@c 0001                   __mediumconst 0600                         tblptrh 0FF7  
                       tblptrl 0FF6                         tblptru 0FF8                         putch@c 0001  
             __end_of_vfprintf 0D18                      ??_sprintf 001E              _SYSTEM_Initialize 0E26  
                   __accesstop 0080        __end_of__initialization 0DC6             ?_SYSTEM_Initialize 0001  
                ___rparam_used 0001                  ?i1_UART_Write 0001                 __pcstackCOMRAM 0001  
          ??_SYSTEM_Initialize 00A7                  __end_of_fputc 0B94                  __end_of_putch 0E82  
                ??_MyusartRead 00A1                  ?i2_UART_Write 0001                        ??_fputc 0004  
    __end_of_SYSTEM_Initialize 0E3C                        ??_putch 0001                     __pbssBANK0 0080  
                      ?_Hi_ISR 0001               i2UART_Write@data 0001                        ?_Lo_ISR 0001  
               ??i1_UART_Write 00A0             i2UART_Write_Text@i 0006                        _CCP1CON 0FBD  
                      Hi_ISR@i 0045                   Hi_ISR@digits 0047                 ??i2_UART_Write 0001  
                 ??_UART_Write 00A7                        i1u81_20 0E20                        i1u81_21 0E1C  
                      i1u90_20 003C                        i1u90_21 0038                        i1u91_20 004A  
                      i1u91_21 0046                        i2u52_40 098A                        i2u60_40 0A80  
                      i2u52_41 0986                        i2u60_41 0A7C                        i2u53_40 09A4  
                      i2u61_40 0A9E                        i2u53_41 09A0                        i2u61_41 0A9A  
                      i1u86_20 0CB6                        i1u86_21 0CB2                        i2u54_40 09CA  
                      i2u62_40 0AB4                        i2u70_40 0822                        i2u54_41 09C6  
                      i2u62_41 0AB0                        i2u70_41 081E                        i2u55_40 09E8  
                      i2u63_40 0AD8                        i2u71_40 083E                        i2u55_41 09E4  
                      i2u63_41 0AD4                        i2u71_41 083A                        i2u56_40 0A04  
                      i2u64_40 0AFA                        i2u72_40 0874                        i2u80_40 0D0E  
                      i2u56_41 0A00                        i2u64_41 0AF6                        i2u72_41 086E  
                      i2u80_41 0D0A                        i2u57_40 0A2A                        i2u65_40 0B0A  
                      i2u73_40 0876                        i2u57_41 0A26                        i2u65_41 0B06  
                      i2u58_40 0A4C                        i2u66_40 0B30                        i2u74_40 08D6  
                      i2u82_40 0E4C                        i2u58_41 0A48                        i2u66_41 0B2C  
                      i2u74_41 08D2                        i2u82_41 0E48                        i2u59_40 0A66  
                      i2u67_40 0B62                        i2u75_40 08E6                        i2u59_41 0A62  
                      i2u67_41 0B5E                        i2u75_41 08E2                        i2u68_40 0D5A  
                      i2u76_40 08F6                        i2u92_40 0638                        i2u68_41 0D56  
                      i2u76_41 08F2                        i2u92_41 0634                        i2u77_40 0906  
                      i2u69_40 07E4                        i2u93_40 0660                        i2u77_41 0902  
                      i2u69_41 07E0                        i2u93_41 065C                        i2u78_40 0946  
                      i2u94_40 066E                        i2u78_41 0942                        i2u94_41 066A  
                      i2u87_40 0C50                        i2u95_40 0690                        i2u95_41 068C  
                      i2u87_47 0C46                        i2u88_40 0C84                        i2u96_40 06C0  
                      i2u96_41 06BC                        i2u88_47 0C7A                        i2u89_40 0C94  
                      i2u97_40 0708                        i2u89_41 0C90                        i2u97_41 0704  
                      i2u98_40 073C                        i2u98_41 0738                        i2u99_40 0770  
                      i2u99_41 076C            __end_of_MyusartRead 0CDA                        __Hparam 0000  
                      __Lparam 0000                        ___awdiv 097A                        ___awmod 0A3C  
           __end_of_UART_Write 0E0E                      ?_vfprintf 0016                   __psmallconst 0600  
                      __pcinit 0DAE                        __ramtop 0600                        __ptext0 0D80  
                      __ptext1 0B94                        __ptext2 0DF6                        __ptext3 0E26  
                      __ptext4 0DD4                        __ptext5 0E70                        __ptext6 0E78  
                      __ptext7 0E64                        __ptext8 0E52                        _counter 004D  
        _OSCILLATOR_Initialize 0E70               ___awmod@dividend 0001                        _sprintf 0D18  
               __pintcode_body 0608           end_of_initialization 0DC6                        fputc@fp 0003  
                __Lmediumconst 0000                        int_func 0608              __end_of_vfpfcnvrt 097A  
                    _RCSTAbits 0FAB                        postdec2 0FDD                        postinc0 0FEE  
                      postinc1 0FE6                        postinc2 0FDE               vfpfcnvrt@convarg 0011  
                   ??_vfprintf 0019                      _PORTBbits 0F81                 UART_Write@data 00A7  
                    _TRISBbits 0F93                      _TRISCbits 0F94                    _MyusartRead 0C96  
         __end_ofi1_UART_Write 0E26                      _TXSTAbits 0FAC                 __end_of_Hi_ISR 07C2  
               __end_of_Lo_ISR 006C           __end_ofi2_UART_Write 0E52   __end_of_INTERRUPT_Initialize 0E80  
                  vfpfcnvrt@ap 000D                    vfpfcnvrt@cp 0010                    vfpfcnvrt@fp 000B  
                  _BAUDCONbits 0FB8                 _ADC_Initialize 0E52         ?_OSCILLATOR_Initialize 0001  
          start_initialization 0DAE                    __end_of_abs 0D80              ??_UART_Initialize 00A7  
                     ??_Hi_ISR 002A                       ??_Lo_ISR 00A2                    vfprintf@fmt 0017  
       __end_of_ADC_Initialize 0E64                    __pbssCOMRAM 0049              i2_UART_Write_Text 0C18  
                __pcstackBANK0 00A0             ?i2_UART_Write_Text 0002          i2UART_Write_Text@text 0002  
          ??i2_UART_Write_Text 0004              ??_CCP1_Initialize 00A7                      __pintcode 0008  
                  Hi_ISR@i_932 003F                    Hi_ISR@i_933 0041                    Hi_ISR@i_934 0043  
                     ?___awdiv 0001                       ?___awmod 0001                ?_ADC_Initialize 0001  
                  __pintcodelo 0018      __end_ofi2_UART_Write_Text 0C96                    __smallconst 0600  
                     ?_sprintf 001A              ??_UART_Write_Text 00AA           _INTERRUPT_Initialize 0E78  
                     _IPR1bits 0F9F                  Hi_ISR@old_val 003D                       _PIE1bits 0F9D  
                     i2u100_40 079C                       i2u100_41 0798                       _PIR1bits 0F9E  
                 i1_UART_Write 0E0E                       _RCONbits 0FD0                  Hi_ISR@str_buf 0033  
                    _vfpfcnvrt 07C2                     _ADCON0bits 0FC2                     _ADCON2bits 0FC0  
                 ?_MyusartRead 0001                   i2_UART_Write 0E3C                     vfpfcnvrt@c 0015  
                  _INTCON2bits 0FF1          ?_INTERRUPT_Initialize 0001               i1UART_Write@data 00A0  
                     __Hrparam 0000                     vfprintf@ap 0018                       __Lrparam 0000  
                   vfprintf@fp 0016        ??_OSCILLATOR_Initialize 00A7                     ?_vfpfcnvrt 000B  
              _UART_Initialize 0DD4                     sprintf@fmt 001B                       __ptext10 0C96  
                     __ptext11 0E0E                       __ptext20 0D4C                       __ptext21 0A3C  
                     __ptext13 0C18                       __ptext22 097A                       __ptext14 0E3C  
                     __ptext15 0D18                       __ptext16 0CDA                       __ptext17 07C2  
                     __ptext18 0AEA                       __ptext19 0E80            UART_Write_Text@text 00A8  
                     isa$xinst 0000                       int$flags 0066                       _vfprintf 0CDA  
                     _mystring 0052                     _INTCONbits 0FF2                _CCP1_Initialize 0E64  
       ??_INTERRUPT_Initialize 00A7                       intlevel1 0000                       intlevel2 0000  
                    sprintf@ap 001E               ??_ADC_Initialize 00A7        __end_of_UART_Initialize 0DF6  
                  ??_vfpfcnvrt 000E                _UART_Write_Text 0B94                       sprintf@f 001F  
                     sprintf@s 001A                     _UART_Write 0DF6               UART_Write_Text@i 00AC  
